ARM GAS  /tmp/ccRfXhtH.s 			page 1


   1              		.cpu cortex-m4
   2              		.arch armv7e-m
   3              		.fpu fpv4-sp-d16
   4              		.eabi_attribute 27, 1
   5              		.eabi_attribute 28, 1
   6              		.eabi_attribute 20, 1
   7              		.eabi_attribute 21, 1
   8              		.eabi_attribute 23, 3
   9              		.eabi_attribute 24, 1
  10              		.eabi_attribute 25, 1
  11              		.eabi_attribute 26, 1
  12              		.eabi_attribute 30, 1
  13              		.eabi_attribute 34, 1
  14              		.eabi_attribute 18, 4
  15              		.file	"cnc_core.c"
  16              		.text
  17              	.Ltext0:
  18              		.cfi_sections	.debug_frame
  19              		.section	.text.ihyp,"ax",%progbits
  20              		.align	1
  21              		.global	ihyp
  22              		.syntax unified
  23              		.thumb
  24              		.thumb_func
  26              	ihyp:
  27              	.LVL0:
  28              	.LFB288:
  29              		.file 1 "Core/Src/cnc_core.c"
   1:Core/Src/cnc_core.c **** 
   2:Core/Src/cnc_core.c **** //--- Francesco Osti 29/12/2022 ---//
   3:Core/Src/cnc_core.c **** 
   4:Core/Src/cnc_core.c **** #include "cnc_core.h"
   5:Core/Src/cnc_core.c **** #include "cnc_config.h"
   6:Core/Src/cnc_core.c **** #include "data_parser.h"
   7:Core/Src/cnc_core.c **** #include "main.h"
   8:Core/Src/cnc_core.c **** #include <stdbool.h>
   9:Core/Src/cnc_core.c **** #include <stdlib.h>
  10:Core/Src/cnc_core.c **** 
  11:Core/Src/cnc_core.c **** //very efficient way of approximating hypotenuse using integer numbers
  12:Core/Src/cnc_core.c **** uint32_t ihyp(uint32_t x, uint32_t y){
  30              		.loc 1 12 38 view -0
  31              		.cfi_startproc
  32              		@ args = 0, pretend = 0, frame = 0
  33              		@ frame_needed = 0, uses_anonymous_args = 0
  34              		@ link register save eliminated.
  13:Core/Src/cnc_core.c ****     if(y > x)
  35              		.loc 1 13 5 view .LVU1
  36              		.loc 1 13 7 is_stmt 0 view .LVU2
  37 0000 8142     		cmp	r1, r0
  38 0002 06D9     		bls	.L2
  14:Core/Src/cnc_core.c ****         return y + (((x*x)/y)>>1);
  39              		.loc 1 14 9 is_stmt 1 view .LVU3
  40              		.loc 1 14 24 is_stmt 0 view .LVU4
  41 0004 00FB00F0 		mul	r0, r0, r0
  42              	.LVL1:
  43              		.loc 1 14 27 view .LVU5
  44 0008 B0FBF1F0 		udiv	r0, r0, r1
ARM GAS  /tmp/ccRfXhtH.s 			page 2


  45              		.loc 1 14 18 view .LVU6
  46 000c 01EB5000 		add	r0, r1, r0, lsr #1
  47 0010 7047     		bx	lr
  48              	.LVL2:
  49              	.L2:
  15:Core/Src/cnc_core.c ****     else
  16:Core/Src/cnc_core.c ****         return x + (((y*y)/x)>>1);
  50              		.loc 1 16 9 is_stmt 1 view .LVU7
  51              		.loc 1 16 24 is_stmt 0 view .LVU8
  52 0012 01FB01F1 		mul	r1, r1, r1
  53              	.LVL3:
  54              		.loc 1 16 27 view .LVU9
  55 0016 B1FBF0F1 		udiv	r1, r1, r0
  56              		.loc 1 16 18 view .LVU10
  57 001a 00EB5100 		add	r0, r0, r1, lsr #1
  58              	.LVL4:
  17:Core/Src/cnc_core.c **** }
  59              		.loc 1 17 1 view .LVU11
  60 001e 7047     		bx	lr
  61              		.cfi_endproc
  62              	.LFE288:
  64              		.section	.text.CNC_Stepper,"ax",%progbits
  65              		.align	1
  66              		.global	CNC_Stepper
  67              		.syntax unified
  68              		.thumb
  69              		.thumb_func
  71              	CNC_Stepper:
  72              	.LVL5:
  73              	.LFB289:
  18:Core/Src/cnc_core.c **** 
  19:Core/Src/cnc_core.c **** void CNC_Stepper(HMI_info_t* const info){
  74              		.loc 1 19 41 is_stmt 1 view -0
  75              		.cfi_startproc
  76              		@ args = 0, pretend = 0, frame = 0
  77              		@ frame_needed = 0, uses_anonymous_args = 0
  78              		.loc 1 19 41 is_stmt 0 view .LVU13
  79 0000 38B5     		push	{r3, r4, r5, lr}
  80              		.cfi_def_cfa_offset 16
  81              		.cfi_offset 3, -16
  82              		.cfi_offset 4, -12
  83              		.cfi_offset 5, -8
  84              		.cfi_offset 14, -4
  85 0002 0446     		mov	r4, r0
  20:Core/Src/cnc_core.c **** 
  21:Core/Src/cnc_core.c ****     info->run.x &= !(HAL_GPIO_ReadPin(limitX_Port, limitX_Pin) || ((info->pos.x == 0) && !info->dir
  86              		.loc 1 21 5 is_stmt 1 view .LVU14
  87              		.loc 1 21 22 is_stmt 0 view .LVU15
  88 0004 4FF48041 		mov	r1, #16384
  89 0008 4F48     		ldr	r0, .L27
  90              	.LVL6:
  91              		.loc 1 21 22 view .LVU16
  92 000a FFF7FEFF 		bl	HAL_GPIO_ReadPin
  93              	.LVL7:
  94              		.loc 1 21 162 view .LVU17
  95 000e 48B9     		cbnz	r0, .L5
  96              		.loc 1 21 78 discriminator 1 view .LVU18
ARM GAS  /tmp/ccRfXhtH.s 			page 3


  97 0010 6368     		ldr	r3, [r4, #4]
  98              		.loc 1 21 64 discriminator 1 view .LVU19
  99 0012 0BB9     		cbnz	r3, .L6
 100              		.loc 1 21 100 discriminator 4 view .LVU20
 101 0014 227C     		ldrb	r2, [r4, #16]	@ zero_extendqisi2
 102              		.loc 1 21 87 discriminator 4 view .LVU21
 103 0016 2AB1     		cbz	r2, .L5
 104              	.L6:
 105              		.loc 1 21 20 discriminator 5 view .LVU22
 106 0018 4C4A     		ldr	r2, .L27+4
 107 001a 9342     		cmp	r3, r2
 108 001c 3FD9     		bls	.L17
 109              		.loc 1 21 157 discriminator 8 view .LVU23
 110 001e 237C     		ldrb	r3, [r4, #16]	@ zero_extendqisi2
 111              		.loc 1 21 145 discriminator 8 view .LVU24
 112 0020 002B     		cmp	r3, #0
 113 0022 3ED0     		beq	.L18
 114              	.L5:
 115              		.loc 1 21 178 discriminator 10 view .LVU25
 116 0024 94F83A30 		ldrb	r3, [r4, #58]	@ zero_extendqisi2
 117              		.loc 1 21 162 discriminator 10 view .LVU26
 118 0028 002B     		cmp	r3, #0
 119 002a 3CD1     		bne	.L19
 120              		.loc 1 21 162 view .LVU27
 121 002c 0122     		movs	r2, #1
 122              	.L7:
 123              		.loc 1 21 17 discriminator 14 view .LVU28
 124 002e 94F83830 		ldrb	r3, [r4, #56]	@ zero_extendqisi2
 125 0032 1340     		ands	r3, r3, r2
 126 0034 84F83830 		strb	r3, [r4, #56]
  22:Core/Src/cnc_core.c ****     info->run.y &= !(HAL_GPIO_ReadPin(limitY_Port, limitY_Pin) || ((info->pos.y == 0) && !info->dir
 127              		.loc 1 22 5 is_stmt 1 discriminator 14 view .LVU29
 128              		.loc 1 22 22 is_stmt 0 discriminator 14 view .LVU30
 129 0038 4FF40041 		mov	r1, #32768
 130 003c 4248     		ldr	r0, .L27
 131 003e FFF7FEFF 		bl	HAL_GPIO_ReadPin
 132              	.LVL8:
 133              		.loc 1 22 162 discriminator 14 view .LVU31
 134 0042 40B9     		cbnz	r0, .L8
 135              		.loc 1 22 78 discriminator 1 view .LVU32
 136 0044 A368     		ldr	r3, [r4, #8]
 137              		.loc 1 22 64 discriminator 1 view .LVU33
 138 0046 0BB9     		cbnz	r3, .L9
 139              		.loc 1 22 100 discriminator 4 view .LVU34
 140 0048 627C     		ldrb	r2, [r4, #17]	@ zero_extendqisi2
 141              		.loc 1 22 87 discriminator 4 view .LVU35
 142 004a 22B1     		cbz	r2, .L8
 143              	.L9:
 144              		.loc 1 22 20 discriminator 5 view .LVU36
 145 004c 404A     		ldr	r2, .L27+8
 146 004e 9342     		cmp	r3, r2
 147 0050 2BD9     		bls	.L20
 148              		.loc 1 22 157 discriminator 8 view .LVU37
 149 0052 637C     		ldrb	r3, [r4, #17]	@ zero_extendqisi2
 150              		.loc 1 22 145 discriminator 8 view .LVU38
 151 0054 5BB3     		cbz	r3, .L21
 152              	.L8:
ARM GAS  /tmp/ccRfXhtH.s 			page 4


 153              		.loc 1 22 178 discriminator 10 view .LVU39
 154 0056 94F83B30 		ldrb	r3, [r4, #59]	@ zero_extendqisi2
 155              		.loc 1 22 162 discriminator 10 view .LVU40
 156 005a 53BB     		cbnz	r3, .L22
 157              		.loc 1 22 162 view .LVU41
 158 005c 0122     		movs	r2, #1
 159              	.L10:
 160              		.loc 1 22 17 discriminator 14 view .LVU42
 161 005e 94F83930 		ldrb	r3, [r4, #57]	@ zero_extendqisi2
 162 0062 1340     		ands	r3, r3, r2
 163 0064 84F83930 		strb	r3, [r4, #57]
  23:Core/Src/cnc_core.c ****     
  24:Core/Src/cnc_core.c ****     HAL_GPIO_WritePin(dirX_Port, dirX_Pin, info->dir.x);
 164              		.loc 1 24 5 is_stmt 1 discriminator 14 view .LVU43
 165 0068 374D     		ldr	r5, .L27
 166 006a 227C     		ldrb	r2, [r4, #16]	@ zero_extendqisi2
 167 006c 4FF48071 		mov	r1, #256
 168 0070 2846     		mov	r0, r5
 169 0072 FFF7FEFF 		bl	HAL_GPIO_WritePin
 170              	.LVL9:
  25:Core/Src/cnc_core.c ****     HAL_GPIO_WritePin(dirY_Port, dirY_Pin, info->dir.y);
 171              		.loc 1 25 5 discriminator 14 view .LVU44
 172 0076 627C     		ldrb	r2, [r4, #17]	@ zero_extendqisi2
 173 0078 4FF40071 		mov	r1, #512
 174 007c 2846     		mov	r0, r5
 175 007e FFF7FEFF 		bl	HAL_GPIO_WritePin
 176              	.LVL10:
  26:Core/Src/cnc_core.c ****     
  27:Core/Src/cnc_core.c ****     bool run = (!(SWSTOP_GPIO_Port->IDR & SWSTOP_Pin) && (info->state == HMI_State_Run || info->mov
 177              		.loc 1 27 5 discriminator 14 view .LVU45
 178              		.loc 1 27 35 is_stmt 0 discriminator 14 view .LVU46
 179 0082 4FF09043 		mov	r3, #1207959552
 180 0086 1B69     		ldr	r3, [r3, #16]
 181              		.loc 1 27 55 discriminator 14 view .LVU47
 182 0088 13F0400F 		tst	r3, #64
 183 008c 13D1     		bne	.L23
 184              		.loc 1 27 63 discriminator 1 view .LVU48
 185 008e 6378     		ldrb	r3, [r4, #1]	@ zero_extendqisi2
 186              		.loc 1 27 55 discriminator 1 view .LVU49
 187 0090 022B     		cmp	r3, #2
 188 0092 31D0     		beq	.L24
 189              		.loc 1 27 95 discriminator 4 view .LVU50
 190 0094 A378     		ldrb	r3, [r4, #2]	@ zero_extendqisi2
 191              		.loc 1 27 88 discriminator 4 view .LVU51
 192 0096 012B     		cmp	r3, #1
 193 0098 30D0     		beq	.L25
 194              		.loc 1 27 55 view .LVU52
 195 009a 0023     		movs	r3, #0
 196 009c 0CE0     		b	.L11
 197              	.L17:
  21:Core/Src/cnc_core.c ****     info->run.y &= !(HAL_GPIO_ReadPin(limitY_Port, limitY_Pin) || ((info->pos.y == 0) && !info->dir
 198              		.loc 1 21 162 view .LVU53
 199 009e 0122     		movs	r2, #1
 200 00a0 C5E7     		b	.L7
 201              	.L18:
  21:Core/Src/cnc_core.c ****     info->run.y &= !(HAL_GPIO_ReadPin(limitY_Port, limitY_Pin) || ((info->pos.y == 0) && !info->dir
 202              		.loc 1 21 162 view .LVU54
ARM GAS  /tmp/ccRfXhtH.s 			page 5


 203 00a2 0122     		movs	r2, #1
 204 00a4 C3E7     		b	.L7
 205              	.L19:
  21:Core/Src/cnc_core.c ****     info->run.y &= !(HAL_GPIO_ReadPin(limitY_Port, limitY_Pin) || ((info->pos.y == 0) && !info->dir
 206              		.loc 1 21 162 view .LVU55
 207 00a6 0022     		movs	r2, #0
 208 00a8 C1E7     		b	.L7
 209              	.L20:
  22:Core/Src/cnc_core.c ****     
 210              		.loc 1 22 162 view .LVU56
 211 00aa 0122     		movs	r2, #1
 212 00ac D7E7     		b	.L10
 213              	.L21:
  22:Core/Src/cnc_core.c ****     
 214              		.loc 1 22 162 view .LVU57
 215 00ae 0122     		movs	r2, #1
 216 00b0 D5E7     		b	.L10
 217              	.L22:
  22:Core/Src/cnc_core.c ****     
 218              		.loc 1 22 162 view .LVU58
 219 00b2 0022     		movs	r2, #0
 220 00b4 D3E7     		b	.L10
 221              	.L23:
 222              		.loc 1 27 55 view .LVU59
 223 00b6 0023     		movs	r3, #0
 224              	.L11:
 225              		.loc 1 27 10 discriminator 8 view .LVU60
 226 00b8 1946     		mov	r1, r3
 227              	.LVL11:
  28:Core/Src/cnc_core.c ****     info->run.x &= run;
 228              		.loc 1 28 5 is_stmt 1 discriminator 8 view .LVU61
 229              		.loc 1 28 17 is_stmt 0 discriminator 8 view .LVU62
 230 00ba 94F83820 		ldrb	r2, [r4, #56]	@ zero_extendqisi2
 231 00be 1A40     		ands	r2, r2, r3
 232 00c0 84F83820 		strb	r2, [r4, #56]
  29:Core/Src/cnc_core.c ****     info->run.y &= run;
 233              		.loc 1 29 5 is_stmt 1 discriminator 8 view .LVU63
 234              		.loc 1 29 17 is_stmt 0 discriminator 8 view .LVU64
 235 00c4 94F83900 		ldrb	r0, [r4, #57]	@ zero_extendqisi2
 236 00c8 0340     		ands	r3, r3, r0
 237              	.LVL12:
 238              		.loc 1 29 17 discriminator 8 view .LVU65
 239 00ca 84F83930 		strb	r3, [r4, #57]
  30:Core/Src/cnc_core.c **** 
  31:Core/Src/cnc_core.c ****     if(info->run.x){
 240              		.loc 1 31 5 is_stmt 1 discriminator 8 view .LVU66
 241              		.loc 1 31 7 is_stmt 0 discriminator 8 view .LVU67
 242 00ce BAB1     		cbz	r2, .L12
  32:Core/Src/cnc_core.c ****         info->htimX->Instance->ARR = info->pulseLenght.x;
 243              		.loc 1 32 9 is_stmt 1 view .LVU68
 244              		.loc 1 32 13 is_stmt 0 view .LVU69
 245 00d0 236C     		ldr	r3, [r4, #64]
 246              		.loc 1 32 20 view .LVU70
 247 00d2 1B68     		ldr	r3, [r3]
 248              		.loc 1 32 55 view .LVU71
 249 00d4 A289     		ldrh	r2, [r4, #12]
 250              		.loc 1 32 36 view .LVU72
ARM GAS  /tmp/ccRfXhtH.s 			page 6


 251 00d6 DA62     		str	r2, [r3, #44]
  33:Core/Src/cnc_core.c ****         info->htimX->Instance->CCR1 = ((info->pulseLenght.x)>>1);
 252              		.loc 1 33 9 is_stmt 1 view .LVU73
 253              		.loc 1 33 58 is_stmt 0 view .LVU74
 254 00d8 A389     		ldrh	r3, [r4, #12]
 255              		.loc 1 33 13 view .LVU75
 256 00da 226C     		ldr	r2, [r4, #64]
 257              		.loc 1 33 20 view .LVU76
 258 00dc 1268     		ldr	r2, [r2]
 259              		.loc 1 33 61 view .LVU77
 260 00de 5B08     		lsrs	r3, r3, #1
 261              		.loc 1 33 37 view .LVU78
 262 00e0 5363     		str	r3, [r2, #52]
  34:Core/Src/cnc_core.c ****         if(!(info->htimX->Instance->CR1 & TIM_CR1_CEN))
 263              		.loc 1 34 9 is_stmt 1 view .LVU79
 264              		.loc 1 34 18 is_stmt 0 view .LVU80
 265 00e2 236C     		ldr	r3, [r4, #64]
 266              		.loc 1 34 25 view .LVU81
 267 00e4 1B68     		ldr	r3, [r3]
 268              		.loc 1 34 35 view .LVU82
 269 00e6 1A68     		ldr	r2, [r3]
 270              		.loc 1 34 11 view .LVU83
 271 00e8 12F0010F 		tst	r2, #1
 272 00ec 0CD1     		bne	.L13
  35:Core/Src/cnc_core.c ****             info->htimX->Instance->CR1 |= TIM_CR1_ARPE | TIM_CR1_OPM | TIM_CR1_CEN;
 273              		.loc 1 35 13 is_stmt 1 view .LVU84
 274              		.loc 1 35 40 is_stmt 0 view .LVU85
 275 00ee 1A68     		ldr	r2, [r3]
 276 00f0 42F08902 		orr	r2, r2, #137
 277 00f4 1A60     		str	r2, [r3]
 278 00f6 07E0     		b	.L13
 279              	.L24:
  27:Core/Src/cnc_core.c ****     info->run.x &= run;
 280              		.loc 1 27 55 view .LVU86
 281 00f8 0123     		movs	r3, #1
 282 00fa DDE7     		b	.L11
 283              	.L25:
 284 00fc 0123     		movs	r3, #1
 285 00fe DBE7     		b	.L11
 286              	.L12:
  36:Core/Src/cnc_core.c ****     }
  37:Core/Src/cnc_core.c ****     else{
  38:Core/Src/cnc_core.c ****         //info->htimX->Instance->CR1 |= TIM_CR1_OPM;
  39:Core/Src/cnc_core.c ****         info->htimX->Instance->SR = 0x00000000U;
 287              		.loc 1 39 9 is_stmt 1 view .LVU87
 288              		.loc 1 39 13 is_stmt 0 view .LVU88
 289 0100 236C     		ldr	r3, [r4, #64]
 290              		.loc 1 39 20 view .LVU89
 291 0102 1B68     		ldr	r3, [r3]
 292              		.loc 1 39 35 view .LVU90
 293 0104 0022     		movs	r2, #0
 294 0106 1A61     		str	r2, [r3, #16]
 295              	.L13:
  40:Core/Src/cnc_core.c ****     }
  41:Core/Src/cnc_core.c **** 
  42:Core/Src/cnc_core.c ****     if(info->run.y){
 296              		.loc 1 42 5 is_stmt 1 view .LVU91
ARM GAS  /tmp/ccRfXhtH.s 			page 7


 297              		.loc 1 42 17 is_stmt 0 view .LVU92
 298 0108 94F83930 		ldrb	r3, [r4, #57]	@ zero_extendqisi2
 299              		.loc 1 42 7 view .LVU93
 300 010c 9BB1     		cbz	r3, .L14
  43:Core/Src/cnc_core.c ****         info->htimY->Instance->ARR = info->pulseLenght.y;
 301              		.loc 1 43 9 is_stmt 1 view .LVU94
 302              		.loc 1 43 13 is_stmt 0 view .LVU95
 303 010e 636C     		ldr	r3, [r4, #68]
 304              		.loc 1 43 20 view .LVU96
 305 0110 1B68     		ldr	r3, [r3]
 306              		.loc 1 43 55 view .LVU97
 307 0112 E289     		ldrh	r2, [r4, #14]
 308              		.loc 1 43 36 view .LVU98
 309 0114 DA62     		str	r2, [r3, #44]
  44:Core/Src/cnc_core.c ****         info->htimY->Instance->CCR3 = ((info->pulseLenght.y)>>1);
 310              		.loc 1 44 9 is_stmt 1 view .LVU99
 311              		.loc 1 44 58 is_stmt 0 view .LVU100
 312 0116 E389     		ldrh	r3, [r4, #14]
 313              		.loc 1 44 13 view .LVU101
 314 0118 626C     		ldr	r2, [r4, #68]
 315              		.loc 1 44 20 view .LVU102
 316 011a 1268     		ldr	r2, [r2]
 317              		.loc 1 44 61 view .LVU103
 318 011c 5B08     		lsrs	r3, r3, #1
 319              		.loc 1 44 37 view .LVU104
 320 011e D363     		str	r3, [r2, #60]
  45:Core/Src/cnc_core.c ****         if(!(info->htimY->Instance->CR1 & TIM_CR1_CEN))
 321              		.loc 1 45 9 is_stmt 1 view .LVU105
 322              		.loc 1 45 18 is_stmt 0 view .LVU106
 323 0120 636C     		ldr	r3, [r4, #68]
 324              		.loc 1 45 25 view .LVU107
 325 0122 1B68     		ldr	r3, [r3]
 326              		.loc 1 45 35 view .LVU108
 327 0124 1A68     		ldr	r2, [r3]
 328              		.loc 1 45 11 view .LVU109
 329 0126 12F0010F 		tst	r2, #1
 330 012a 08D1     		bne	.L15
  46:Core/Src/cnc_core.c ****             info->htimY->Instance->CR1 |= TIM_CR1_ARPE | TIM_CR1_OPM | TIM_CR1_CEN; 
 331              		.loc 1 46 13 is_stmt 1 view .LVU110
 332              		.loc 1 46 40 is_stmt 0 view .LVU111
 333 012c 1A68     		ldr	r2, [r3]
 334 012e 42F08902 		orr	r2, r2, #137
 335 0132 1A60     		str	r2, [r3]
 336 0134 03E0     		b	.L15
 337              	.L14:
  47:Core/Src/cnc_core.c ****     }
  48:Core/Src/cnc_core.c ****     else{
  49:Core/Src/cnc_core.c ****     //    info->htimY->Instance->CR1 |= TIM_CR1_OPM;
  50:Core/Src/cnc_core.c ****         info->htimY->Instance->SR = 0x00000000U;          
 338              		.loc 1 50 9 is_stmt 1 view .LVU112
 339              		.loc 1 50 13 is_stmt 0 view .LVU113
 340 0136 636C     		ldr	r3, [r4, #68]
 341              		.loc 1 50 20 view .LVU114
 342 0138 1B68     		ldr	r3, [r3]
 343              		.loc 1 50 35 view .LVU115
 344 013a 0022     		movs	r2, #0
 345 013c 1A61     		str	r2, [r3, #16]
ARM GAS  /tmp/ccRfXhtH.s 			page 8


 346              	.L15:
  51:Core/Src/cnc_core.c ****     }
  52:Core/Src/cnc_core.c **** 
  53:Core/Src/cnc_core.c ****     if(!run){
 347              		.loc 1 53 5 is_stmt 1 view .LVU116
 348              		.loc 1 53 7 is_stmt 0 view .LVU117
 349 013e 09B9     		cbnz	r1, .L4
  54:Core/Src/cnc_core.c ****         info->state = HMI_State_Stop;
 350              		.loc 1 54 9 is_stmt 1 view .LVU118
 351              		.loc 1 54 21 is_stmt 0 view .LVU119
 352 0140 0023     		movs	r3, #0
 353 0142 6370     		strb	r3, [r4, #1]
 354              	.L4:
  55:Core/Src/cnc_core.c ****         //info->htimX->Instance->CR1 |= TIM_CR1_OPM;
  56:Core/Src/cnc_core.c ****         //info->htimY->Instance->CR1 |= TIM_CR1_OPM;
  57:Core/Src/cnc_core.c ****     }
  58:Core/Src/cnc_core.c **** }
 355              		.loc 1 58 1 view .LVU120
 356 0144 38BD     		pop	{r3, r4, r5, pc}
 357              	.LVL13:
 358              	.L28:
 359              		.loc 1 58 1 view .LVU121
 360 0146 00BF     		.align	2
 361              	.L27:
 362 0148 000C0048 		.word	1207962624
 363 014c 7F600100 		.word	90239
 364 0150 FFE10400 		.word	319999
 365              		.cfi_endproc
 366              	.LFE289:
 368              		.section	.text.CNC_JogX_Forced,"ax",%progbits
 369              		.align	1
 370              		.global	CNC_JogX_Forced
 371              		.syntax unified
 372              		.thumb
 373              		.thumb_func
 375              	CNC_JogX_Forced:
 376              	.LVL14:
 377              	.LFB290:
  59:Core/Src/cnc_core.c **** 
  60:Core/Src/cnc_core.c **** void CNC_JogX_Forced(HMI_info_t* const info){
 378              		.loc 1 60 45 is_stmt 1 view -0
 379              		.cfi_startproc
 380              		@ args = 0, pretend = 0, frame = 0
 381              		@ frame_needed = 0, uses_anonymous_args = 0
 382              		.loc 1 60 45 is_stmt 0 view .LVU123
 383 0000 10B5     		push	{r4, lr}
 384              		.cfi_def_cfa_offset 8
 385              		.cfi_offset 4, -8
 386              		.cfi_offset 14, -4
 387 0002 0446     		mov	r4, r0
  61:Core/Src/cnc_core.c ****     info->run.x = true;
 388              		.loc 1 61 5 is_stmt 1 view .LVU124
 389              		.loc 1 61 17 is_stmt 0 view .LVU125
 390 0004 0122     		movs	r2, #1
 391 0006 80F83820 		strb	r2, [r0, #56]
  62:Core/Src/cnc_core.c ****     HAL_GPIO_WritePin(dirX_Port, dirX_Pin, true);
 392              		.loc 1 62 5 is_stmt 1 view .LVU126
ARM GAS  /tmp/ccRfXhtH.s 			page 9


 393 000a 4FF48071 		mov	r1, #256
 394 000e 0B48     		ldr	r0, .L32
 395              	.LVL15:
 396              		.loc 1 62 5 is_stmt 0 view .LVU127
 397 0010 FFF7FEFF 		bl	HAL_GPIO_WritePin
 398              	.LVL16:
  63:Core/Src/cnc_core.c ****     info->htimX->Instance->ARR = 200;
 399              		.loc 1 63 5 is_stmt 1 view .LVU128
 400              		.loc 1 63 9 is_stmt 0 view .LVU129
 401 0014 236C     		ldr	r3, [r4, #64]
 402              		.loc 1 63 16 view .LVU130
 403 0016 1B68     		ldr	r3, [r3]
 404              		.loc 1 63 32 view .LVU131
 405 0018 C822     		movs	r2, #200
 406 001a DA62     		str	r2, [r3, #44]
  64:Core/Src/cnc_core.c ****     info->htimX->Instance->CCR1 = 100;
 407              		.loc 1 64 5 is_stmt 1 view .LVU132
 408              		.loc 1 64 9 is_stmt 0 view .LVU133
 409 001c 236C     		ldr	r3, [r4, #64]
 410              		.loc 1 64 16 view .LVU134
 411 001e 1B68     		ldr	r3, [r3]
 412              		.loc 1 64 33 view .LVU135
 413 0020 6422     		movs	r2, #100
 414 0022 5A63     		str	r2, [r3, #52]
  65:Core/Src/cnc_core.c ****     if(!(info->htimX->Instance->CR1 & TIM_CR1_CEN))
 415              		.loc 1 65 5 is_stmt 1 view .LVU136
 416              		.loc 1 65 14 is_stmt 0 view .LVU137
 417 0024 236C     		ldr	r3, [r4, #64]
 418              		.loc 1 65 21 view .LVU138
 419 0026 1B68     		ldr	r3, [r3]
 420              		.loc 1 65 31 view .LVU139
 421 0028 1A68     		ldr	r2, [r3]
 422              		.loc 1 65 7 view .LVU140
 423 002a 12F0010F 		tst	r2, #1
 424 002e 03D1     		bne	.L29
  66:Core/Src/cnc_core.c ****         info->htimX->Instance->CR1 |= TIM_CR1_ARPE | TIM_CR1_OPM | TIM_CR1_CEN;
 425              		.loc 1 66 9 is_stmt 1 view .LVU141
 426              		.loc 1 66 36 is_stmt 0 view .LVU142
 427 0030 1A68     		ldr	r2, [r3]
 428 0032 42F08902 		orr	r2, r2, #137
 429 0036 1A60     		str	r2, [r3]
 430              	.L29:
  67:Core/Src/cnc_core.c **** }
 431              		.loc 1 67 1 view .LVU143
 432 0038 10BD     		pop	{r4, pc}
 433              	.LVL17:
 434              	.L33:
 435              		.loc 1 67 1 view .LVU144
 436 003a 00BF     		.align	2
 437              	.L32:
 438 003c 000C0048 		.word	1207962624
 439              		.cfi_endproc
 440              	.LFE290:
 442              		.section	.text.CNC_JogY_Forced,"ax",%progbits
 443              		.align	1
 444              		.global	CNC_JogY_Forced
 445              		.syntax unified
ARM GAS  /tmp/ccRfXhtH.s 			page 10


 446              		.thumb
 447              		.thumb_func
 449              	CNC_JogY_Forced:
 450              	.LVL18:
 451              	.LFB291:
  68:Core/Src/cnc_core.c **** 
  69:Core/Src/cnc_core.c **** void CNC_JogY_Forced(HMI_info_t* const info){
 452              		.loc 1 69 45 is_stmt 1 view -0
 453              		.cfi_startproc
 454              		@ args = 0, pretend = 0, frame = 0
 455              		@ frame_needed = 0, uses_anonymous_args = 0
 456              		.loc 1 69 45 is_stmt 0 view .LVU146
 457 0000 10B5     		push	{r4, lr}
 458              		.cfi_def_cfa_offset 8
 459              		.cfi_offset 4, -8
 460              		.cfi_offset 14, -4
 461 0002 0446     		mov	r4, r0
  70:Core/Src/cnc_core.c ****     info->run.y = true;
 462              		.loc 1 70 5 is_stmt 1 view .LVU147
 463              		.loc 1 70 17 is_stmt 0 view .LVU148
 464 0004 0122     		movs	r2, #1
 465 0006 80F83920 		strb	r2, [r0, #57]
  71:Core/Src/cnc_core.c ****     HAL_GPIO_WritePin(dirY_Port, dirY_Pin, true);
 466              		.loc 1 71 5 is_stmt 1 view .LVU149
 467 000a 4FF40071 		mov	r1, #512
 468 000e 0B48     		ldr	r0, .L37
 469              	.LVL19:
 470              		.loc 1 71 5 is_stmt 0 view .LVU150
 471 0010 FFF7FEFF 		bl	HAL_GPIO_WritePin
 472              	.LVL20:
  72:Core/Src/cnc_core.c ****     info->htimY->Instance->ARR = 200;
 473              		.loc 1 72 5 is_stmt 1 view .LVU151
 474              		.loc 1 72 9 is_stmt 0 view .LVU152
 475 0014 636C     		ldr	r3, [r4, #68]
 476              		.loc 1 72 16 view .LVU153
 477 0016 1B68     		ldr	r3, [r3]
 478              		.loc 1 72 32 view .LVU154
 479 0018 C822     		movs	r2, #200
 480 001a DA62     		str	r2, [r3, #44]
  73:Core/Src/cnc_core.c ****     info->htimY->Instance->CCR1 = 100;
 481              		.loc 1 73 5 is_stmt 1 view .LVU155
 482              		.loc 1 73 9 is_stmt 0 view .LVU156
 483 001c 636C     		ldr	r3, [r4, #68]
 484              		.loc 1 73 16 view .LVU157
 485 001e 1B68     		ldr	r3, [r3]
 486              		.loc 1 73 33 view .LVU158
 487 0020 6422     		movs	r2, #100
 488 0022 5A63     		str	r2, [r3, #52]
  74:Core/Src/cnc_core.c ****     if(!(info->htimY->Instance->CR1 & TIM_CR1_CEN))
 489              		.loc 1 74 5 is_stmt 1 view .LVU159
 490              		.loc 1 74 14 is_stmt 0 view .LVU160
 491 0024 636C     		ldr	r3, [r4, #68]
 492              		.loc 1 74 21 view .LVU161
 493 0026 1B68     		ldr	r3, [r3]
 494              		.loc 1 74 31 view .LVU162
 495 0028 1A68     		ldr	r2, [r3]
 496              		.loc 1 74 7 view .LVU163
ARM GAS  /tmp/ccRfXhtH.s 			page 11


 497 002a 12F0010F 		tst	r2, #1
 498 002e 03D1     		bne	.L34
  75:Core/Src/cnc_core.c ****         info->htimY->Instance->CR1 |= TIM_CR1_ARPE | TIM_CR1_OPM | TIM_CR1_CEN;
 499              		.loc 1 75 9 is_stmt 1 view .LVU164
 500              		.loc 1 75 36 is_stmt 0 view .LVU165
 501 0030 1A68     		ldr	r2, [r3]
 502 0032 42F08902 		orr	r2, r2, #137
 503 0036 1A60     		str	r2, [r3]
 504              	.L34:
  76:Core/Src/cnc_core.c **** }
 505              		.loc 1 76 1 view .LVU166
 506 0038 10BD     		pop	{r4, pc}
 507              	.LVL21:
 508              	.L38:
 509              		.loc 1 76 1 view .LVU167
 510 003a 00BF     		.align	2
 511              	.L37:
 512 003c 000C0048 		.word	1207962624
 513              		.cfi_endproc
 514              	.LFE291:
 516              		.section	.text.CNC_Absolute,"ax",%progbits
 517              		.align	1
 518              		.global	CNC_Absolute
 519              		.syntax unified
 520              		.thumb
 521              		.thumb_func
 523              	CNC_Absolute:
 524              	.LVL22:
 525              	.LFB292:
  77:Core/Src/cnc_core.c **** 
  78:Core/Src/cnc_core.c **** void CNC_Absolute(HMI_info_t* const info){
 526              		.loc 1 78 42 is_stmt 1 view -0
 527              		.cfi_startproc
 528              		@ args = 0, pretend = 0, frame = 0
 529              		@ frame_needed = 0, uses_anonymous_args = 0
 530              		.loc 1 78 42 is_stmt 0 view .LVU169
 531 0000 70B5     		push	{r4, r5, r6, lr}
 532              		.cfi_def_cfa_offset 16
 533              		.cfi_offset 4, -16
 534              		.cfi_offset 5, -12
 535              		.cfi_offset 6, -8
 536              		.cfi_offset 14, -4
 537 0002 0446     		mov	r4, r0
  79:Core/Src/cnc_core.c **** 
  80:Core/Src/cnc_core.c ****     info->dir.x = (info->pos.x < info->commanded.pos.x);
 538              		.loc 1 80 5 is_stmt 1 view .LVU170
 539              		.loc 1 80 29 is_stmt 0 view .LVU171
 540 0004 4568     		ldr	r5, [r0, #4]
 541              		.loc 1 80 53 view .LVU172
 542 0006 4169     		ldr	r1, [r0, #20]
 543              		.loc 1 80 32 view .LVU173
 544 0008 8D42     		cmp	r5, r1
 545 000a 2CBF     		ite	cs
 546 000c 0020     		movcs	r0, #0
 547              	.LVL23:
 548              		.loc 1 80 32 view .LVU174
 549 000e 0120     		movcc	r0, #1
ARM GAS  /tmp/ccRfXhtH.s 			page 12


 550              		.loc 1 80 17 view .LVU175
 551 0010 2074     		strb	r0, [r4, #16]
  81:Core/Src/cnc_core.c ****     info->dir.y = (info->pos.y < info->commanded.pos.y);
 552              		.loc 1 81 5 is_stmt 1 view .LVU176
 553              		.loc 1 81 29 is_stmt 0 view .LVU177
 554 0012 A668     		ldr	r6, [r4, #8]
 555              		.loc 1 81 53 view .LVU178
 556 0014 A369     		ldr	r3, [r4, #24]
 557              		.loc 1 81 32 view .LVU179
 558 0016 9E42     		cmp	r6, r3
 559 0018 2CBF     		ite	cs
 560 001a 0022     		movcs	r2, #0
 561 001c 0122     		movcc	r2, #1
 562              		.loc 1 81 17 view .LVU180
 563 001e 6274     		strb	r2, [r4, #17]
  82:Core/Src/cnc_core.c **** 
  83:Core/Src/cnc_core.c ****     uint32_t dX = info->dir.x ? (info->commanded.pos.x - info->pos.x) : (info->pos.x - info->comman
 564              		.loc 1 83 5 is_stmt 1 view .LVU181
 565              		.loc 1 83 71 is_stmt 0 view .LVU182
 566 0020 0028     		cmp	r0, #0
 567 0022 41D0     		beq	.L40
 568              		.loc 1 83 71 discriminator 1 view .LVU183
 569 0024 4D1B     		subs	r5, r1, r5
 570              	.L41:
 571              	.LVL24:
  84:Core/Src/cnc_core.c ****     uint32_t dY = info->dir.y ? (info->commanded.pos.y - info->pos.y) : (info->pos.y - info->comman
 572              		.loc 1 84 5 is_stmt 1 discriminator 4 view .LVU184
 573              		.loc 1 84 71 is_stmt 0 discriminator 4 view .LVU185
 574 0026 002A     		cmp	r2, #0
 575 0028 40D0     		beq	.L42
 576              		.loc 1 84 71 discriminator 1 view .LVU186
 577 002a 9E1B     		subs	r6, r3, r6
 578              	.L43:
 579              	.LVL25:
  85:Core/Src/cnc_core.c **** 
  86:Core/Src/cnc_core.c ****     info->run.x = dX > 0;
 580              		.loc 1 86 5 is_stmt 1 discriminator 4 view .LVU187
 581              		.loc 1 86 22 is_stmt 0 discriminator 4 view .LVU188
 582 002c 2B1E     		subs	r3, r5, #0
 583 002e 18BF     		it	ne
 584 0030 0123     		movne	r3, #1
 585              		.loc 1 86 17 discriminator 4 view .LVU189
 586 0032 84F83830 		strb	r3, [r4, #56]
  87:Core/Src/cnc_core.c ****     info->run.y = dY > 0;
 587              		.loc 1 87 5 is_stmt 1 discriminator 4 view .LVU190
 588              		.loc 1 87 22 is_stmt 0 discriminator 4 view .LVU191
 589 0036 331E     		subs	r3, r6, #0
 590 0038 18BF     		it	ne
 591 003a 0123     		movne	r3, #1
 592              		.loc 1 87 17 discriminator 4 view .LVU192
 593 003c 84F83930 		strb	r3, [r4, #57]
  88:Core/Src/cnc_core.c **** 
  89:Core/Src/cnc_core.c ****     //sistema questa parte dai...
  90:Core/Src/cnc_core.c ****     uint32_t den;
 594              		.loc 1 90 5 is_stmt 1 discriminator 4 view .LVU193
  91:Core/Src/cnc_core.c ****     uint32_t range = (dX > dY) ? dX : dY;
 595              		.loc 1 91 5 discriminator 4 view .LVU194
ARM GAS  /tmp/ccRfXhtH.s 			page 13


 596              		.loc 1 91 14 is_stmt 0 discriminator 4 view .LVU195
 597 0040 2B46     		mov	r3, r5
 598 0042 B542     		cmp	r5, r6
 599 0044 38BF     		it	cc
 600 0046 3346     		movcc	r3, r6
 601              	.LVL26:
  92:Core/Src/cnc_core.c **** 
  93:Core/Src/cnc_core.c ****     if(range > (1<<16)-1){
 602              		.loc 1 93 5 is_stmt 1 discriminator 4 view .LVU196
 603              		.loc 1 93 7 is_stmt 0 discriminator 4 view .LVU197
 604 0048 B3F5803F 		cmp	r3, #65536
 605 004c 01D3     		bcc	.L44
  94:Core/Src/cnc_core.c ****        dX <<= 4;
 606              		.loc 1 94 8 is_stmt 1 view .LVU198
 607              		.loc 1 94 11 is_stmt 0 view .LVU199
 608 004e 2D01     		lsls	r5, r5, #4
 609              	.LVL27:
  95:Core/Src/cnc_core.c ****        dY <<= 4; 
 610              		.loc 1 95 8 is_stmt 1 view .LVU200
 611              		.loc 1 95 11 is_stmt 0 view .LVU201
 612 0050 3601     		lsls	r6, r6, #4
 613              	.LVL28:
 614              	.L44:
  96:Core/Src/cnc_core.c ****     }
  97:Core/Src/cnc_core.c **** 
  98:Core/Src/cnc_core.c ****     if(range < (1<<8))
 615              		.loc 1 98 5 is_stmt 1 view .LVU202
 616              		.loc 1 98 7 is_stmt 0 view .LVU203
 617 0052 FF2B     		cmp	r3, #255
 618 0054 2CD8     		bhi	.L45
  99:Core/Src/cnc_core.c ****         den = ihyp(dX<<7, dY<<7) * ((freqX_1mm_min>>7)/info->feed);
 619              		.loc 1 99 9 is_stmt 1 view .LVU204
 620              		.loc 1 99 15 is_stmt 0 view .LVU205
 621 0056 F101     		lsls	r1, r6, #7
 622 0058 E801     		lsls	r0, r5, #7
 623 005a FFF7FEFF 		bl	ihyp
 624              	.LVL29:
 625              		.loc 1 99 60 view .LVU206
 626 005e E269     		ldr	r2, [r4, #28]
 627              		.loc 1 99 55 view .LVU207
 628 0060 40F2FF13 		movw	r3, #511
 629 0064 B3FBF2F3 		udiv	r3, r3, r2
 630              		.loc 1 99 13 view .LVU208
 631 0068 03FB00F0 		mul	r0, r3, r0
 632              	.LVL30:
 633              	.L46:
 100:Core/Src/cnc_core.c ****     else
 101:Core/Src/cnc_core.c ****         den = ihyp(dX, dY) * (freqX_1mm_min/info->feed);
 102:Core/Src/cnc_core.c **** 
 103:Core/Src/cnc_core.c ****     
 104:Core/Src/cnc_core.c ****     info->pulseLenght.x = (uint16_t) (den/dX);
 634              		.loc 1 104 5 is_stmt 1 view .LVU209
 635              		.loc 1 104 42 is_stmt 0 view .LVU210
 636 006c B0FBF5F5 		udiv	r5, r0, r5
 637              	.LVL31:
 638              		.loc 1 104 27 view .LVU211
 639 0070 ADB2     		uxth	r5, r5
ARM GAS  /tmp/ccRfXhtH.s 			page 14


 640              		.loc 1 104 25 view .LVU212
 641 0072 A581     		strh	r5, [r4, #12]	@ movhi
 105:Core/Src/cnc_core.c ****     info->pulseLenght.y = (uint16_t) (den/dY);
 642              		.loc 1 105 5 is_stmt 1 view .LVU213
 643              		.loc 1 105 42 is_stmt 0 view .LVU214
 644 0074 B0FBF6F0 		udiv	r0, r0, r6
 645              	.LVL32:
 646              		.loc 1 105 27 view .LVU215
 647 0078 80B2     		uxth	r0, r0
 648              		.loc 1 105 25 view .LVU216
 649 007a E081     		strh	r0, [r4, #14]	@ movhi
 106:Core/Src/cnc_core.c **** 
 107:Core/Src/cnc_core.c ****     //da sistemare
 108:Core/Src/cnc_core.c ****     if(info->pulseLenght.x < 10) info->pulseLenght.x = 1000;
 650              		.loc 1 108 5 is_stmt 1 view .LVU217
 651              		.loc 1 108 7 is_stmt 0 view .LVU218
 652 007c 092D     		cmp	r5, #9
 653 007e 02D8     		bhi	.L47
 654              		.loc 1 108 34 is_stmt 1 discriminator 1 view .LVU219
 655              		.loc 1 108 54 is_stmt 0 discriminator 1 view .LVU220
 656 0080 4FF47A73 		mov	r3, #1000
 657 0084 A381     		strh	r3, [r4, #12]	@ movhi
 658              	.L47:
 109:Core/Src/cnc_core.c ****     if(info->pulseLenght.y < 10) info->pulseLenght.y = 1000;
 659              		.loc 1 109 5 is_stmt 1 view .LVU221
 660              		.loc 1 109 7 is_stmt 0 view .LVU222
 661 0086 0928     		cmp	r0, #9
 662 0088 02D8     		bhi	.L48
 663              		.loc 1 109 34 is_stmt 1 discriminator 1 view .LVU223
 664              		.loc 1 109 54 is_stmt 0 discriminator 1 view .LVU224
 665 008a 4FF47A73 		mov	r3, #1000
 666 008e E381     		strh	r3, [r4, #14]	@ movhi
 667              	.L48:
 110:Core/Src/cnc_core.c **** 
 111:Core/Src/cnc_core.c ****     CNC_Stepper(info);    
 668              		.loc 1 111 5 is_stmt 1 view .LVU225
 669 0090 2046     		mov	r0, r4
 670 0092 FFF7FEFF 		bl	CNC_Stepper
 671              	.LVL33:
 112:Core/Src/cnc_core.c **** 
 113:Core/Src/cnc_core.c ****     if(!info->run.x && !info->run.y)
 672              		.loc 1 113 5 view .LVU226
 673              		.loc 1 113 18 is_stmt 0 view .LVU227
 674 0096 94F83830 		ldrb	r3, [r4, #56]	@ zero_extendqisi2
 675              		.loc 1 113 7 view .LVU228
 676 009a 23B9     		cbnz	r3, .L39
 677              		.loc 1 113 34 discriminator 1 view .LVU229
 678 009c 94F83930 		ldrb	r3, [r4, #57]	@ zero_extendqisi2
 679              		.loc 1 113 21 discriminator 1 view .LVU230
 680 00a0 0BB9     		cbnz	r3, .L39
 114:Core/Src/cnc_core.c ****         info->move = HMI_Move_Done; 
 681              		.loc 1 114 9 is_stmt 1 view .LVU231
 682              		.loc 1 114 20 is_stmt 0 view .LVU232
 683 00a2 0323     		movs	r3, #3
 684 00a4 A370     		strb	r3, [r4, #2]
 685              	.L39:
 115:Core/Src/cnc_core.c **** }
ARM GAS  /tmp/ccRfXhtH.s 			page 15


 686              		.loc 1 115 1 view .LVU233
 687 00a6 70BD     		pop	{r4, r5, r6, pc}
 688              	.LVL34:
 689              	.L40:
  83:Core/Src/cnc_core.c ****     uint32_t dY = info->dir.y ? (info->commanded.pos.y - info->pos.y) : (info->pos.y - info->comman
 690              		.loc 1 83 71 discriminator 2 view .LVU234
 691 00a8 6D1A     		subs	r5, r5, r1
 692 00aa BCE7     		b	.L41
 693              	.LVL35:
 694              	.L42:
  84:Core/Src/cnc_core.c **** 
 695              		.loc 1 84 71 discriminator 2 view .LVU235
 696 00ac F61A     		subs	r6, r6, r3
 697 00ae BDE7     		b	.L43
 698              	.LVL36:
 699              	.L45:
 101:Core/Src/cnc_core.c **** 
 700              		.loc 1 101 9 is_stmt 1 view .LVU236
 101:Core/Src/cnc_core.c **** 
 701              		.loc 1 101 15 is_stmt 0 view .LVU237
 702 00b0 3146     		mov	r1, r6
 703 00b2 2846     		mov	r0, r5
 704 00b4 FFF7FEFF 		bl	ihyp
 705              	.LVL37:
 101:Core/Src/cnc_core.c **** 
 706              		.loc 1 101 49 view .LVU238
 707 00b8 E269     		ldr	r2, [r4, #28]
 101:Core/Src/cnc_core.c **** 
 708              		.loc 1 101 44 view .LVU239
 709 00ba 4FF6EA73 		movw	r3, #65514
 710 00be B3FBF2F3 		udiv	r3, r3, r2
 101:Core/Src/cnc_core.c **** 
 711              		.loc 1 101 13 view .LVU240
 712 00c2 03FB00F0 		mul	r0, r3, r0
 713              	.LVL38:
 101:Core/Src/cnc_core.c **** 
 714              		.loc 1 101 13 view .LVU241
 715 00c6 D1E7     		b	.L46
 716              		.cfi_endproc
 717              	.LFE292:
 719              		.section	.text.CNC_AbsoluteX,"ax",%progbits
 720              		.align	1
 721              		.global	CNC_AbsoluteX
 722              		.syntax unified
 723              		.thumb
 724              		.thumb_func
 726              	CNC_AbsoluteX:
 727              	.LVL39:
 728              	.LFB293:
 116:Core/Src/cnc_core.c **** 
 117:Core/Src/cnc_core.c **** bool CNC_AbsoluteX(HMI_info_t* const info){
 729              		.loc 1 117 43 is_stmt 1 view -0
 730              		.cfi_startproc
 731              		@ args = 0, pretend = 0, frame = 0
 732              		@ frame_needed = 0, uses_anonymous_args = 0
 733              		.loc 1 117 43 is_stmt 0 view .LVU243
 734 0000 10B5     		push	{r4, lr}
ARM GAS  /tmp/ccRfXhtH.s 			page 16


 735              		.cfi_def_cfa_offset 8
 736              		.cfi_offset 4, -8
 737              		.cfi_offset 14, -4
 738 0002 0446     		mov	r4, r0
 118:Core/Src/cnc_core.c ****     info->dir.x = (info->pos.x < info->commanded.pos.x);
 739              		.loc 1 118 5 is_stmt 1 view .LVU244
 740              		.loc 1 118 29 is_stmt 0 view .LVU245
 741 0004 4368     		ldr	r3, [r0, #4]
 742              		.loc 1 118 53 view .LVU246
 743 0006 4269     		ldr	r2, [r0, #20]
 744              		.loc 1 118 32 view .LVU247
 745 0008 9342     		cmp	r3, r2
 746 000a 2CBF     		ite	cs
 747 000c 0021     		movcs	r1, #0
 748 000e 0121     		movcc	r1, #1
 749              		.loc 1 118 17 view .LVU248
 750 0010 0174     		strb	r1, [r0, #16]
 119:Core/Src/cnc_core.c ****     uint32_t dX = info->dir.x ? (info->commanded.pos.x - info->pos.x) : (info->pos.x - info->comman
 751              		.loc 1 119 5 is_stmt 1 view .LVU249
 752              		.loc 1 119 71 is_stmt 0 view .LVU250
 753 0012 B1B1     		cbz	r1, .L52
 754              		.loc 1 119 71 discriminator 1 view .LVU251
 755 0014 D31A     		subs	r3, r2, r3
 756              	.L53:
 757              	.LVL40:
 120:Core/Src/cnc_core.c ****     
 121:Core/Src/cnc_core.c ****     info->run.x = dX > 0;
 758              		.loc 1 121 5 is_stmt 1 discriminator 4 view .LVU252
 759              		.loc 1 121 22 is_stmt 0 discriminator 4 view .LVU253
 760 0016 003B     		subs	r3, r3, #0
 761              		.loc 1 121 22 discriminator 4 view .LVU254
 762 0018 18BF     		it	ne
 763 001a 0123     		movne	r3, #1
 764              	.LVL41:
 765              		.loc 1 121 17 discriminator 4 view .LVU255
 766 001c 84F83830 		strb	r3, [r4, #56]
 122:Core/Src/cnc_core.c ****     info->run.y = false;
 767              		.loc 1 122 5 is_stmt 1 discriminator 4 view .LVU256
 768              		.loc 1 122 17 is_stmt 0 discriminator 4 view .LVU257
 769 0020 0023     		movs	r3, #0
 770 0022 84F83930 		strb	r3, [r4, #57]
 123:Core/Src/cnc_core.c **** 
 124:Core/Src/cnc_core.c ****     info->pulseLenght.x = (uint16_t) (freqX_1mm_min / info->feed);
 771              		.loc 1 124 5 is_stmt 1 discriminator 4 view .LVU258
 772              		.loc 1 124 59 is_stmt 0 discriminator 4 view .LVU259
 773 0026 E269     		ldr	r2, [r4, #28]
 774              		.loc 1 124 27 discriminator 4 view .LVU260
 775 0028 4FF6EA73 		movw	r3, #65514
 776 002c B3FBF2F3 		udiv	r3, r3, r2
 777              		.loc 1 124 25 discriminator 4 view .LVU261
 778 0030 A381     		strh	r3, [r4, #12]	@ movhi
 125:Core/Src/cnc_core.c **** 
 126:Core/Src/cnc_core.c ****     CNC_Stepper(info);    
 779              		.loc 1 126 5 is_stmt 1 discriminator 4 view .LVU262
 780 0032 2046     		mov	r0, r4
 781              	.LVL42:
 782              		.loc 1 126 5 is_stmt 0 discriminator 4 view .LVU263
ARM GAS  /tmp/ccRfXhtH.s 			page 17


 783 0034 FFF7FEFF 		bl	CNC_Stepper
 784              	.LVL43:
 127:Core/Src/cnc_core.c **** 
 128:Core/Src/cnc_core.c ****     return !info->run.x;
 785              		.loc 1 128 5 is_stmt 1 discriminator 4 view .LVU264
 786              		.loc 1 128 22 is_stmt 0 discriminator 4 view .LVU265
 787 0038 94F83800 		ldrb	r0, [r4, #56]	@ zero_extendqisi2
 129:Core/Src/cnc_core.c **** }
 788              		.loc 1 129 1 discriminator 4 view .LVU266
 789 003c 80F00100 		eor	r0, r0, #1
 790 0040 10BD     		pop	{r4, pc}
 791              	.LVL44:
 792              	.L52:
 119:Core/Src/cnc_core.c ****     
 793              		.loc 1 119 71 discriminator 2 view .LVU267
 794 0042 9B1A     		subs	r3, r3, r2
 795 0044 E7E7     		b	.L53
 796              		.cfi_endproc
 797              	.LFE293:
 799              		.section	.text.CNC_AbsoluteY,"ax",%progbits
 800              		.align	1
 801              		.global	CNC_AbsoluteY
 802              		.syntax unified
 803              		.thumb
 804              		.thumb_func
 806              	CNC_AbsoluteY:
 807              	.LVL45:
 808              	.LFB294:
 130:Core/Src/cnc_core.c **** 
 131:Core/Src/cnc_core.c **** bool CNC_AbsoluteY(HMI_info_t* const info){
 809              		.loc 1 131 43 is_stmt 1 view -0
 810              		.cfi_startproc
 811              		@ args = 0, pretend = 0, frame = 0
 812              		@ frame_needed = 0, uses_anonymous_args = 0
 813              		.loc 1 131 43 is_stmt 0 view .LVU269
 814 0000 10B5     		push	{r4, lr}
 815              		.cfi_def_cfa_offset 8
 816              		.cfi_offset 4, -8
 817              		.cfi_offset 14, -4
 818 0002 0446     		mov	r4, r0
 132:Core/Src/cnc_core.c ****     info->dir.y = (info->pos.y < info->commanded.pos.y);
 819              		.loc 1 132 5 is_stmt 1 view .LVU270
 820              		.loc 1 132 29 is_stmt 0 view .LVU271
 821 0004 8368     		ldr	r3, [r0, #8]
 822              		.loc 1 132 53 view .LVU272
 823 0006 8269     		ldr	r2, [r0, #24]
 824              		.loc 1 132 32 view .LVU273
 825 0008 9342     		cmp	r3, r2
 826 000a 2CBF     		ite	cs
 827 000c 0021     		movcs	r1, #0
 828 000e 0121     		movcc	r1, #1
 829              		.loc 1 132 17 view .LVU274
 830 0010 4174     		strb	r1, [r0, #17]
 133:Core/Src/cnc_core.c ****     uint32_t dY = info->dir.y ? (info->commanded.pos.y - info->pos.y) : (info->pos.y - info->comman
 831              		.loc 1 133 5 is_stmt 1 view .LVU275
 832              		.loc 1 133 71 is_stmt 0 view .LVU276
 833 0012 B1B1     		cbz	r1, .L56
ARM GAS  /tmp/ccRfXhtH.s 			page 18


 834              		.loc 1 133 71 discriminator 1 view .LVU277
 835 0014 D31A     		subs	r3, r2, r3
 836              	.L57:
 837              	.LVL46:
 134:Core/Src/cnc_core.c ****     
 135:Core/Src/cnc_core.c ****     info->run.x = false;
 838              		.loc 1 135 5 is_stmt 1 discriminator 4 view .LVU278
 839              		.loc 1 135 17 is_stmt 0 discriminator 4 view .LVU279
 840 0016 0022     		movs	r2, #0
 841 0018 84F83820 		strb	r2, [r4, #56]
 136:Core/Src/cnc_core.c ****     info->run.y = dY > 0;
 842              		.loc 1 136 5 is_stmt 1 discriminator 4 view .LVU280
 843              		.loc 1 136 22 is_stmt 0 discriminator 4 view .LVU281
 844 001c 9B1A     		subs	r3, r3, r2
 845              		.loc 1 136 22 discriminator 4 view .LVU282
 846 001e 18BF     		it	ne
 847 0020 0123     		movne	r3, #1
 848              	.LVL47:
 849              		.loc 1 136 17 discriminator 4 view .LVU283
 850 0022 84F83930 		strb	r3, [r4, #57]
 137:Core/Src/cnc_core.c **** 
 138:Core/Src/cnc_core.c ****     info->pulseLenght.y = (uint16_t) (freqY_1mm_min / info->feed);
 851              		.loc 1 138 5 is_stmt 1 discriminator 4 view .LVU284
 852              		.loc 1 138 59 is_stmt 0 discriminator 4 view .LVU285
 853 0026 E269     		ldr	r2, [r4, #28]
 854              		.loc 1 138 27 discriminator 4 view .LVU286
 855 0028 4FF6EA73 		movw	r3, #65514
 856 002c B3FBF2F3 		udiv	r3, r3, r2
 857              		.loc 1 138 25 discriminator 4 view .LVU287
 858 0030 E381     		strh	r3, [r4, #14]	@ movhi
 139:Core/Src/cnc_core.c **** 
 140:Core/Src/cnc_core.c ****     CNC_Stepper(info);    
 859              		.loc 1 140 5 is_stmt 1 discriminator 4 view .LVU288
 860 0032 2046     		mov	r0, r4
 861              	.LVL48:
 862              		.loc 1 140 5 is_stmt 0 discriminator 4 view .LVU289
 863 0034 FFF7FEFF 		bl	CNC_Stepper
 864              	.LVL49:
 141:Core/Src/cnc_core.c **** 
 142:Core/Src/cnc_core.c ****     return !info->run.y;
 865              		.loc 1 142 5 is_stmt 1 discriminator 4 view .LVU290
 866              		.loc 1 142 22 is_stmt 0 discriminator 4 view .LVU291
 867 0038 94F83900 		ldrb	r0, [r4, #57]	@ zero_extendqisi2
 143:Core/Src/cnc_core.c **** }
 868              		.loc 1 143 1 discriminator 4 view .LVU292
 869 003c 80F00100 		eor	r0, r0, #1
 870 0040 10BD     		pop	{r4, pc}
 871              	.LVL50:
 872              	.L56:
 133:Core/Src/cnc_core.c ****     
 873              		.loc 1 133 71 discriminator 2 view .LVU293
 874 0042 9B1A     		subs	r3, r3, r2
 875 0044 E7E7     		b	.L57
 876              		.cfi_endproc
 877              	.LFE294:
 879              		.section	.text.CNC_Jog,"ax",%progbits
 880              		.align	1
ARM GAS  /tmp/ccRfXhtH.s 			page 19


 881              		.global	CNC_Jog
 882              		.syntax unified
 883              		.thumb
 884              		.thumb_func
 886              	CNC_Jog:
 887              	.LVL51:
 888              	.LFB295:
 144:Core/Src/cnc_core.c **** 
 145:Core/Src/cnc_core.c **** void CNC_Jog(HMI_info_t* const info){
 889              		.loc 1 145 37 is_stmt 1 view -0
 890              		.cfi_startproc
 891              		@ args = 0, pretend = 0, frame = 0
 892              		@ frame_needed = 0, uses_anonymous_args = 0
 893              		.loc 1 145 37 is_stmt 0 view .LVU295
 894 0000 08B5     		push	{r3, lr}
 895              		.cfi_def_cfa_offset 8
 896              		.cfi_offset 3, -8
 897              		.cfi_offset 14, -4
 146:Core/Src/cnc_core.c **** 
 147:Core/Src/cnc_core.c ****     info->dir.x = (info->commanded.speed.x >= 0);
 898              		.loc 1 147 5 is_stmt 1 view .LVU296
 899              		.loc 1 147 41 is_stmt 0 view .LVU297
 900 0002 4269     		ldr	r2, [r0, #20]
 901              		.loc 1 147 44 view .LVU298
 902 0004 D343     		mvns	r3, r2
 903 0006 DB0F     		lsrs	r3, r3, #31
 904              		.loc 1 147 17 view .LVU299
 905 0008 0374     		strb	r3, [r0, #16]
 148:Core/Src/cnc_core.c ****     info->dir.y = (info->commanded.speed.y >= 0);
 906              		.loc 1 148 5 is_stmt 1 view .LVU300
 907              		.loc 1 148 41 is_stmt 0 view .LVU301
 908 000a 8369     		ldr	r3, [r0, #24]
 909              		.loc 1 148 44 view .LVU302
 910 000c D943     		mvns	r1, r3
 911 000e C90F     		lsrs	r1, r1, #31
 912              		.loc 1 148 17 view .LVU303
 913 0010 4174     		strb	r1, [r0, #17]
 149:Core/Src/cnc_core.c **** 
 150:Core/Src/cnc_core.c ****     if(info->commanded.speed.x != 0)
 914              		.loc 1 150 5 is_stmt 1 view .LVU304
 915              		.loc 1 150 7 is_stmt 0 view .LVU305
 916 0012 FAB1     		cbz	r2, .L60
 151:Core/Src/cnc_core.c ****         info->pulseLenght.x = (uint16_t) (freqX_1mm_min) / abs(info->commanded.speed.x);
 917              		.loc 1 151 9 is_stmt 1 view .LVU306
 918              		.loc 1 151 60 is_stmt 0 view .LVU307
 919 0014 82EAE27C 		eor	ip, r2, r2, asr #31
 920 0018 ACEBE27C 		sub	ip, ip, r2, asr #31
 921              		.loc 1 151 58 view .LVU308
 922 001c 4FF6EA71 		movw	r1, #65514
 923 0020 91FBFCF1 		sdiv	r1, r1, ip
 924              		.loc 1 151 29 view .LVU309
 925 0024 8181     		strh	r1, [r0, #12]	@ movhi
 926              	.L61:
 152:Core/Src/cnc_core.c ****     else
 153:Core/Src/cnc_core.c ****         info->pulseLenght.x = 200;
 154:Core/Src/cnc_core.c **** 
 155:Core/Src/cnc_core.c ****     if(info->commanded.speed.y != 0)
ARM GAS  /tmp/ccRfXhtH.s 			page 20


 927              		.loc 1 155 5 is_stmt 1 view .LVU310
 928              		.loc 1 155 7 is_stmt 0 view .LVU311
 929 0026 C3B1     		cbz	r3, .L62
 156:Core/Src/cnc_core.c ****         info->pulseLenght.y = (uint16_t) (freqY_1mm_min) / abs(info->commanded.speed.y);
 930              		.loc 1 156 9 is_stmt 1 view .LVU312
 931              		.loc 1 156 60 is_stmt 0 view .LVU313
 932 0028 83EAE37C 		eor	ip, r3, r3, asr #31
 933 002c ACEBE37C 		sub	ip, ip, r3, asr #31
 934              		.loc 1 156 58 view .LVU314
 935 0030 4FF6EA71 		movw	r1, #65514
 936 0034 91FBFCF1 		sdiv	r1, r1, ip
 937              		.loc 1 156 29 view .LVU315
 938 0038 C181     		strh	r1, [r0, #14]	@ movhi
 939              	.L63:
 157:Core/Src/cnc_core.c ****     else
 158:Core/Src/cnc_core.c ****         info->pulseLenght.y = 200;
 159:Core/Src/cnc_core.c **** 
 160:Core/Src/cnc_core.c ****     info->run.x = info->commanded.speed.x != 0;
 940              		.loc 1 160 5 is_stmt 1 view .LVU316
 941              		.loc 1 160 43 is_stmt 0 view .LVU317
 942 003a 003A     		subs	r2, r2, #0
 943 003c 18BF     		it	ne
 944 003e 0122     		movne	r2, #1
 945              		.loc 1 160 17 view .LVU318
 946 0040 80F83820 		strb	r2, [r0, #56]
 161:Core/Src/cnc_core.c ****     info->run.y = info->commanded.speed.y != 0;
 947              		.loc 1 161 5 is_stmt 1 view .LVU319
 948              		.loc 1 161 43 is_stmt 0 view .LVU320
 949 0044 003B     		subs	r3, r3, #0
 950 0046 18BF     		it	ne
 951 0048 0123     		movne	r3, #1
 952              		.loc 1 161 17 view .LVU321
 953 004a 80F83930 		strb	r3, [r0, #57]
 162:Core/Src/cnc_core.c **** 
 163:Core/Src/cnc_core.c ****     CNC_Stepper(info); 
 954              		.loc 1 163 5 is_stmt 1 view .LVU322
 955 004e FFF7FEFF 		bl	CNC_Stepper
 956              	.LVL52:
 164:Core/Src/cnc_core.c **** }
 957              		.loc 1 164 1 is_stmt 0 view .LVU323
 958 0052 08BD     		pop	{r3, pc}
 959              	.LVL53:
 960              	.L60:
 153:Core/Src/cnc_core.c **** 
 961              		.loc 1 153 9 is_stmt 1 view .LVU324
 153:Core/Src/cnc_core.c **** 
 962              		.loc 1 153 29 is_stmt 0 view .LVU325
 963 0054 C821     		movs	r1, #200
 964 0056 8181     		strh	r1, [r0, #12]	@ movhi
 965 0058 E5E7     		b	.L61
 966              	.L62:
 158:Core/Src/cnc_core.c **** 
 967              		.loc 1 158 9 is_stmt 1 view .LVU326
 158:Core/Src/cnc_core.c **** 
 968              		.loc 1 158 29 is_stmt 0 view .LVU327
 969 005a C821     		movs	r1, #200
 970 005c C181     		strh	r1, [r0, #14]	@ movhi
ARM GAS  /tmp/ccRfXhtH.s 			page 21


 971 005e ECE7     		b	.L63
 972              		.cfi_endproc
 973              	.LFE295:
 975              		.section	.text.CNC_TIM_Callback_X,"ax",%progbits
 976              		.align	1
 977              		.global	CNC_TIM_Callback_X
 978              		.syntax unified
 979              		.thumb
 980              		.thumb_func
 982              	CNC_TIM_Callback_X:
 983              	.LVL54:
 984              	.LFB296:
 165:Core/Src/cnc_core.c **** 
 166:Core/Src/cnc_core.c **** void CNC_TIM_Callback_X(HMI_info_t* const info){
 985              		.loc 1 166 48 is_stmt 1 view -0
 986              		.cfi_startproc
 987              		@ args = 0, pretend = 0, frame = 0
 988              		@ frame_needed = 0, uses_anonymous_args = 0
 989              		@ link register save eliminated.
 167:Core/Src/cnc_core.c ****     if(info->run.x)
 990              		.loc 1 167 5 view .LVU329
 991              		.loc 1 167 17 is_stmt 0 view .LVU330
 992 0000 90F83830 		ldrb	r3, [r0, #56]	@ zero_extendqisi2
 993              		.loc 1 167 7 view .LVU331
 994 0004 2BB1     		cbz	r3, .L66
 168:Core/Src/cnc_core.c ****         info->htimX->Instance->CR1 |= TIM_CR1_ARPE | TIM_CR1_OPM | TIM_CR1_CEN;
 995              		.loc 1 168 9 is_stmt 1 view .LVU332
 996              		.loc 1 168 13 is_stmt 0 view .LVU333
 997 0006 036C     		ldr	r3, [r0, #64]
 998              		.loc 1 168 20 view .LVU334
 999 0008 1A68     		ldr	r2, [r3]
 1000              		.loc 1 168 36 view .LVU335
 1001 000a 1368     		ldr	r3, [r2]
 1002 000c 43F08903 		orr	r3, r3, #137
 1003 0010 1360     		str	r3, [r2]
 1004              	.L66:
 169:Core/Src/cnc_core.c **** 
 170:Core/Src/cnc_core.c ****     if(info->dir.x)
 1005              		.loc 1 170 5 is_stmt 1 view .LVU336
 1006              		.loc 1 170 17 is_stmt 0 view .LVU337
 1007 0012 037C     		ldrb	r3, [r0, #16]	@ zero_extendqisi2
 1008              		.loc 1 170 7 view .LVU338
 1009 0014 33B1     		cbz	r3, .L67
 171:Core/Src/cnc_core.c ****         info->pos.x++;
 1010              		.loc 1 171 9 is_stmt 1 view .LVU339
 1011              		.loc 1 171 18 is_stmt 0 view .LVU340
 1012 0016 4368     		ldr	r3, [r0, #4]
 1013              		.loc 1 171 20 view .LVU341
 1014 0018 0133     		adds	r3, r3, #1
 1015 001a 4360     		str	r3, [r0, #4]
 1016              	.L68:
 172:Core/Src/cnc_core.c ****     else{
 173:Core/Src/cnc_core.c ****         if(info->pos.x != 0)
 174:Core/Src/cnc_core.c ****             info->pos.x--;
 175:Core/Src/cnc_core.c ****     }
 176:Core/Src/cnc_core.c ****     info->update = true;         
 1017              		.loc 1 176 5 is_stmt 1 view .LVU342
ARM GAS  /tmp/ccRfXhtH.s 			page 22


 1018              		.loc 1 176 18 is_stmt 0 view .LVU343
 1019 001c 0123     		movs	r3, #1
 1020 001e 80F83530 		strb	r3, [r0, #53]
 177:Core/Src/cnc_core.c **** }
 1021              		.loc 1 177 1 view .LVU344
 1022 0022 7047     		bx	lr
 1023              	.L67:
 173:Core/Src/cnc_core.c ****             info->pos.x--;
 1024              		.loc 1 173 9 is_stmt 1 view .LVU345
 173:Core/Src/cnc_core.c ****             info->pos.x--;
 1025              		.loc 1 173 21 is_stmt 0 view .LVU346
 1026 0024 4368     		ldr	r3, [r0, #4]
 173:Core/Src/cnc_core.c ****             info->pos.x--;
 1027              		.loc 1 173 11 view .LVU347
 1028 0026 002B     		cmp	r3, #0
 1029 0028 F8D0     		beq	.L68
 174:Core/Src/cnc_core.c ****     }
 1030              		.loc 1 174 13 is_stmt 1 view .LVU348
 174:Core/Src/cnc_core.c ****     }
 1031              		.loc 1 174 24 is_stmt 0 view .LVU349
 1032 002a 013B     		subs	r3, r3, #1
 1033 002c 4360     		str	r3, [r0, #4]
 1034 002e F5E7     		b	.L68
 1035              		.cfi_endproc
 1036              	.LFE296:
 1038              		.section	.text.CNC_TIM_Callback_Y,"ax",%progbits
 1039              		.align	1
 1040              		.global	CNC_TIM_Callback_Y
 1041              		.syntax unified
 1042              		.thumb
 1043              		.thumb_func
 1045              	CNC_TIM_Callback_Y:
 1046              	.LVL55:
 1047              	.LFB297:
 178:Core/Src/cnc_core.c **** 
 179:Core/Src/cnc_core.c **** void CNC_TIM_Callback_Y(HMI_info_t* const info){
 1048              		.loc 1 179 48 is_stmt 1 view -0
 1049              		.cfi_startproc
 1050              		@ args = 0, pretend = 0, frame = 0
 1051              		@ frame_needed = 0, uses_anonymous_args = 0
 1052              		@ link register save eliminated.
 180:Core/Src/cnc_core.c ****     if(info->run.y)
 1053              		.loc 1 180 5 view .LVU351
 1054              		.loc 1 180 17 is_stmt 0 view .LVU352
 1055 0000 90F83930 		ldrb	r3, [r0, #57]	@ zero_extendqisi2
 1056              		.loc 1 180 7 view .LVU353
 1057 0004 2BB1     		cbz	r3, .L70
 181:Core/Src/cnc_core.c ****         info->htimY->Instance->CR1 |= TIM_CR1_ARPE | TIM_CR1_OPM | TIM_CR1_CEN;
 1058              		.loc 1 181 9 is_stmt 1 view .LVU354
 1059              		.loc 1 181 13 is_stmt 0 view .LVU355
 1060 0006 436C     		ldr	r3, [r0, #68]
 1061              		.loc 1 181 20 view .LVU356
 1062 0008 1A68     		ldr	r2, [r3]
 1063              		.loc 1 181 36 view .LVU357
 1064 000a 1368     		ldr	r3, [r2]
 1065 000c 43F08903 		orr	r3, r3, #137
 1066 0010 1360     		str	r3, [r2]
ARM GAS  /tmp/ccRfXhtH.s 			page 23


 1067              	.L70:
 182:Core/Src/cnc_core.c **** 
 183:Core/Src/cnc_core.c ****     if(info->dir.y)
 1068              		.loc 1 183 5 is_stmt 1 view .LVU358
 1069              		.loc 1 183 17 is_stmt 0 view .LVU359
 1070 0012 437C     		ldrb	r3, [r0, #17]	@ zero_extendqisi2
 1071              		.loc 1 183 7 view .LVU360
 1072 0014 33B1     		cbz	r3, .L71
 184:Core/Src/cnc_core.c ****         info->pos.y++;
 1073              		.loc 1 184 9 is_stmt 1 view .LVU361
 1074              		.loc 1 184 18 is_stmt 0 view .LVU362
 1075 0016 8368     		ldr	r3, [r0, #8]
 1076              		.loc 1 184 20 view .LVU363
 1077 0018 0133     		adds	r3, r3, #1
 1078 001a 8360     		str	r3, [r0, #8]
 1079              	.L72:
 185:Core/Src/cnc_core.c ****     else{
 186:Core/Src/cnc_core.c ****         if(info->pos.y != 0)
 187:Core/Src/cnc_core.c ****             info->pos.y--;
 188:Core/Src/cnc_core.c ****     }
 189:Core/Src/cnc_core.c ****     info->update = true;  
 1080              		.loc 1 189 5 is_stmt 1 view .LVU364
 1081              		.loc 1 189 18 is_stmt 0 view .LVU365
 1082 001c 0123     		movs	r3, #1
 1083 001e 80F83530 		strb	r3, [r0, #53]
 190:Core/Src/cnc_core.c **** }
 1084              		.loc 1 190 1 view .LVU366
 1085 0022 7047     		bx	lr
 1086              	.L71:
 186:Core/Src/cnc_core.c ****             info->pos.y--;
 1087              		.loc 1 186 9 is_stmt 1 view .LVU367
 186:Core/Src/cnc_core.c ****             info->pos.y--;
 1088              		.loc 1 186 21 is_stmt 0 view .LVU368
 1089 0024 8368     		ldr	r3, [r0, #8]
 186:Core/Src/cnc_core.c ****             info->pos.y--;
 1090              		.loc 1 186 11 view .LVU369
 1091 0026 002B     		cmp	r3, #0
 1092 0028 F8D0     		beq	.L72
 187:Core/Src/cnc_core.c ****     }
 1093              		.loc 1 187 13 is_stmt 1 view .LVU370
 187:Core/Src/cnc_core.c ****     }
 1094              		.loc 1 187 24 is_stmt 0 view .LVU371
 1095 002a 013B     		subs	r3, r3, #1
 1096 002c 8360     		str	r3, [r0, #8]
 1097 002e F5E7     		b	.L72
 1098              		.cfi_endproc
 1099              	.LFE297:
 1101              		.section	.text.CNC_HL_Control,"ax",%progbits
 1102              		.align	1
 1103              		.global	CNC_HL_Control
 1104              		.syntax unified
 1105              		.thumb
 1106              		.thumb_func
 1108              	CNC_HL_Control:
 1109              	.LVL56:
 1110              	.LFB298:
 191:Core/Src/cnc_core.c **** 
ARM GAS  /tmp/ccRfXhtH.s 			page 24


 192:Core/Src/cnc_core.c **** void CNC_HL_Control(HMI_info_t* const info, UART_HandleTypeDef *huart, volatile uint16_t *adc_data)
 1111              		.loc 1 192 100 is_stmt 1 view -0
 1112              		.cfi_startproc
 1113              		@ args = 0, pretend = 0, frame = 0
 1114              		@ frame_needed = 0, uses_anonymous_args = 0
 1115              		.loc 1 192 100 is_stmt 0 view .LVU373
 1116 0000 10B5     		push	{r4, lr}
 1117              		.cfi_def_cfa_offset 8
 1118              		.cfi_offset 4, -8
 1119              		.cfi_offset 14, -4
 1120 0002 0446     		mov	r4, r0
 1121 0004 0846     		mov	r0, r1
 1122              	.LVL57:
 193:Core/Src/cnc_core.c ****     switch (info->mode) {
 1123              		.loc 1 193 5 is_stmt 1 view .LVU374
 1124              		.loc 1 193 17 is_stmt 0 view .LVU375
 1125 0006 2378     		ldrb	r3, [r4]	@ zero_extendqisi2
 1126              		.loc 1 193 5 view .LVU376
 1127 0008 032B     		cmp	r3, #3
 1128 000a 73D8     		bhi	.L73
 1129 000c DFE813F0 		tbh	[pc, r3, lsl #1]
 1130              	.LVL58:
 1131              	.L76:
 1132 0010 0400     		.2byte	(.L79-.L76)/2
 1133 0012 4B00     		.2byte	(.L78-.L76)/2
 1134 0014 7300     		.2byte	(.L77-.L76)/2
 1135 0016 D600     		.2byte	(.L75-.L76)/2
 1136              		.p2align 1
 1137              	.L79:
 1138              	.LBB2:
 194:Core/Src/cnc_core.c ****         case  HMI_Mode_Zero:
 195:Core/Src/cnc_core.c ****             if(info->state == HMI_State_Run){
 1139              		.loc 1 195 13 is_stmt 1 view .LVU377
 1140              		.loc 1 195 20 is_stmt 0 view .LVU378
 1141 0018 6278     		ldrb	r2, [r4, #1]	@ zero_extendqisi2
 1142              	.LVL59:
 1143              		.loc 1 195 15 view .LVU379
 1144 001a 022A     		cmp	r2, #2
 1145 001c 6AD1     		bne	.L73
 196:Core/Src/cnc_core.c ****                 switch (info->mode){
 1146              		.loc 1 196 17 is_stmt 1 view .LVU380
 1147 001e 023B     		subs	r3, r3, #2
 1148 0020 092B     		cmp	r3, #9
 1149 0022 39D8     		bhi	.L80
 1150 0024 DFE803F0 		tbb	[pc, r3]
 1151              	.L82:
 1152 0028 05       		.byte	(.L85-.L82)/2
 1153 0029 38       		.byte	(.L80-.L82)/2
 1154 002a 38       		.byte	(.L80-.L82)/2
 1155 002b 38       		.byte	(.L80-.L82)/2
 1156 002c 38       		.byte	(.L80-.L82)/2
 1157 002d 38       		.byte	(.L80-.L82)/2
 1158 002e 05       		.byte	(.L85-.L82)/2
 1159 002f 10       		.byte	(.L84-.L82)/2
 1160 0030 20       		.byte	(.L83-.L82)/2
 1161 0031 29       		.byte	(.L81-.L82)/2
 1162              		.p2align 1
ARM GAS  /tmp/ccRfXhtH.s 			page 25


 1163              	.L85:
 197:Core/Src/cnc_core.c ****                     case  HMI_Move_None:
 198:Core/Src/cnc_core.c ****                     case  HMI_Move_ZeroX:
 199:Core/Src/cnc_core.c ****                         info->move = HMI_Move_ZeroX;
 1164              		.loc 1 199 25 view .LVU381
 1165              		.loc 1 199 36 is_stmt 0 view .LVU382
 1166 0032 0823     		movs	r3, #8
 1167 0034 A370     		strb	r3, [r4, #2]
 200:Core/Src/cnc_core.c ****                         info->commanded.speed.x = -2000;  
 1168              		.loc 1 200 25 is_stmt 1 view .LVU383
 1169              		.loc 1 200 49 is_stmt 0 view .LVU384
 1170 0036 A3F5FB63 		sub	r3, r3, #2008
 1171 003a 6361     		str	r3, [r4, #20]
 201:Core/Src/cnc_core.c ****                         info->commanded.speed.y = 0;
 1172              		.loc 1 201 25 is_stmt 1 view .LVU385
 1173              		.loc 1 201 49 is_stmt 0 view .LVU386
 1174 003c 0023     		movs	r3, #0
 1175 003e A361     		str	r3, [r4, #24]
 202:Core/Src/cnc_core.c ****                         CNC_Jog(info);
 1176              		.loc 1 202 25 is_stmt 1 view .LVU387
 1177 0040 2046     		mov	r0, r4
 1178              	.LVL60:
 1179              		.loc 1 202 25 is_stmt 0 view .LVU388
 1180 0042 FFF7FEFF 		bl	CNC_Jog
 1181              	.LVL61:
 203:Core/Src/cnc_core.c ****                     break;
 1182              		.loc 1 203 21 is_stmt 1 view .LVU389
 1183 0046 55E0     		b	.L73
 1184              	.LVL62:
 1185              	.L84:
 204:Core/Src/cnc_core.c **** 
 205:Core/Src/cnc_core.c ****                     case  HMI_Move_ZeroXB:
 206:Core/Src/cnc_core.c ****                         CNC_JogX_Forced(info);
 1186              		.loc 1 206 25 view .LVU390
 1187 0048 2046     		mov	r0, r4
 1188              	.LVL63:
 1189              		.loc 1 206 25 is_stmt 0 view .LVU391
 1190 004a FFF7FEFF 		bl	CNC_JogX_Forced
 1191              	.LVL64:
 207:Core/Src/cnc_core.c ****                         if(!HAL_GPIO_ReadPin(limitX_Port, limitX_Pin)){
 1192              		.loc 1 207 25 is_stmt 1 view .LVU392
 1193              		.loc 1 207 29 is_stmt 0 view .LVU393
 1194 004e 4FF48041 		mov	r1, #16384
 1195 0052 6648     		ldr	r0, .L111
 1196 0054 FFF7FEFF 		bl	HAL_GPIO_ReadPin
 1197              	.LVL65:
 1198              		.loc 1 207 27 view .LVU394
 1199 0058 0028     		cmp	r0, #0
 1200 005a 4BD1     		bne	.L73
 208:Core/Src/cnc_core.c ****                             info->run.x = false;
 1201              		.loc 1 208 29 is_stmt 1 view .LVU395
 1202              		.loc 1 208 41 is_stmt 0 view .LVU396
 1203 005c 0023     		movs	r3, #0
 1204 005e 84F83830 		strb	r3, [r4, #56]
 209:Core/Src/cnc_core.c ****                             info->move = HMI_Move_ZeroY;
 1205              		.loc 1 209 29 is_stmt 1 view .LVU397
 1206              		.loc 1 209 40 is_stmt 0 view .LVU398
ARM GAS  /tmp/ccRfXhtH.s 			page 26


 1207 0062 0A23     		movs	r3, #10
 1208 0064 A370     		strb	r3, [r4, #2]
 1209 0066 45E0     		b	.L73
 1210              	.LVL66:
 1211              	.L83:
 210:Core/Src/cnc_core.c ****                         }
 211:Core/Src/cnc_core.c ****                     break;
 212:Core/Src/cnc_core.c **** 
 213:Core/Src/cnc_core.c ****                     case  HMI_Move_ZeroY:
 214:Core/Src/cnc_core.c ****                         info->commanded.speed.x = 0;  
 1212              		.loc 1 214 25 is_stmt 1 view .LVU399
 1213              		.loc 1 214 49 is_stmt 0 view .LVU400
 1214 0068 0023     		movs	r3, #0
 1215 006a 6361     		str	r3, [r4, #20]
 215:Core/Src/cnc_core.c ****                         info->commanded.speed.y = -2000;
 1216              		.loc 1 215 25 is_stmt 1 view .LVU401
 1217              		.loc 1 215 49 is_stmt 0 view .LVU402
 1218 006c A3F5FA63 		sub	r3, r3, #2000
 1219 0070 A361     		str	r3, [r4, #24]
 216:Core/Src/cnc_core.c ****                         CNC_Jog(info);
 1220              		.loc 1 216 25 is_stmt 1 view .LVU403
 1221 0072 2046     		mov	r0, r4
 1222              	.LVL67:
 1223              		.loc 1 216 25 is_stmt 0 view .LVU404
 1224 0074 FFF7FEFF 		bl	CNC_Jog
 1225              	.LVL68:
 217:Core/Src/cnc_core.c ****                     break;
 1226              		.loc 1 217 21 is_stmt 1 view .LVU405
 1227 0078 3CE0     		b	.L73
 1228              	.LVL69:
 1229              	.L81:
 218:Core/Src/cnc_core.c **** 
 219:Core/Src/cnc_core.c ****                     case  HMI_Move_ZeroYB:
 220:Core/Src/cnc_core.c ****                         CNC_JogX_Forced(info);
 1230              		.loc 1 220 25 view .LVU406
 1231 007a 2046     		mov	r0, r4
 1232              	.LVL70:
 1233              		.loc 1 220 25 is_stmt 0 view .LVU407
 1234 007c FFF7FEFF 		bl	CNC_JogX_Forced
 1235              	.LVL71:
 221:Core/Src/cnc_core.c ****                         if(!HAL_GPIO_ReadPin(limitX_Port, limitX_Pin)){
 1236              		.loc 1 221 25 is_stmt 1 view .LVU408
 1237              		.loc 1 221 29 is_stmt 0 view .LVU409
 1238 0080 4FF48041 		mov	r1, #16384
 1239 0084 5948     		ldr	r0, .L111
 1240 0086 FFF7FEFF 		bl	HAL_GPIO_ReadPin
 1241              	.LVL72:
 1242              		.loc 1 221 27 view .LVU410
 1243 008a 98BB     		cbnz	r0, .L73
 222:Core/Src/cnc_core.c ****                             info->run.y = false;
 1244              		.loc 1 222 29 is_stmt 1 view .LVU411
 1245              		.loc 1 222 41 is_stmt 0 view .LVU412
 1246 008c 0023     		movs	r3, #0
 1247 008e 84F83930 		strb	r3, [r4, #57]
 223:Core/Src/cnc_core.c ****                             info->move = HMI_Move_Done;
 1248              		.loc 1 223 29 is_stmt 1 view .LVU413
 1249              		.loc 1 223 40 is_stmt 0 view .LVU414
ARM GAS  /tmp/ccRfXhtH.s 			page 27


 1250 0092 0323     		movs	r3, #3
 1251 0094 A370     		strb	r3, [r4, #2]
 1252 0096 2DE0     		b	.L73
 1253              	.LVL73:
 1254              	.L80:
 224:Core/Src/cnc_core.c ****                         }
 225:Core/Src/cnc_core.c ****                     break;
 226:Core/Src/cnc_core.c **** 
 227:Core/Src/cnc_core.c ****                     default:
 228:Core/Src/cnc_core.c ****                         info->state = HMI_State_Stop;
 1255              		.loc 1 228 25 is_stmt 1 view .LVU415
 1256              		.loc 1 228 37 is_stmt 0 view .LVU416
 1257 0098 0023     		movs	r3, #0
 1258 009a 6370     		strb	r3, [r4, #1]
 229:Core/Src/cnc_core.c ****                         info->run.x = false;
 1259              		.loc 1 229 25 is_stmt 1 view .LVU417
 1260              		.loc 1 229 37 is_stmt 0 view .LVU418
 1261 009c 84F83830 		strb	r3, [r4, #56]
 230:Core/Src/cnc_core.c ****                         info->run.y = false;
 1262              		.loc 1 230 25 is_stmt 1 view .LVU419
 1263              		.loc 1 230 37 is_stmt 0 view .LVU420
 1264 00a0 84F83930 		strb	r3, [r4, #57]
 231:Core/Src/cnc_core.c ****                     break;
 1265              		.loc 1 231 21 is_stmt 1 view .LVU421
 1266 00a4 26E0     		b	.L73
 1267              	.LVL74:
 1268              	.L78:
 232:Core/Src/cnc_core.c ****                 }
 233:Core/Src/cnc_core.c ****             }
 234:Core/Src/cnc_core.c ****         break;
 235:Core/Src/cnc_core.c **** 
 236:Core/Src/cnc_core.c ****         case  HMI_Mode_Man:
 237:Core/Src/cnc_core.c ****             info->move = HMI_Move_Jog;
 1269              		.loc 1 237 13 view .LVU422
 1270              		.loc 1 237 24 is_stmt 0 view .LVU423
 1271 00a6 0123     		movs	r3, #1
 1272 00a8 A370     		strb	r3, [r4, #2]
 238:Core/Src/cnc_core.c ****             int16_t jogX = ((int16_t) (adc_data[6]>>1)) - (1844/2); //subtract center value X
 1273              		.loc 1 238 13 is_stmt 1 view .LVU424
 1274              		.loc 1 238 48 is_stmt 0 view .LVU425
 1275 00aa 9189     		ldrh	r1, [r2, #12]
 1276              		.loc 1 238 29 view .LVU426
 1277 00ac C1F34E01 		ubfx	r1, r1, #1, #15
 1278              		.loc 1 238 57 view .LVU427
 1279 00b0 A1F29A31 		subw	r1, r1, #922
 1280              		.loc 1 238 21 view .LVU428
 1281 00b4 09B2     		sxth	r1, r1
 1282              	.LVL75:
 239:Core/Src/cnc_core.c ****             int16_t jogY = ((int16_t) (adc_data[7]>>1)) - (1814/2); //subtract center value Y
 1283              		.loc 1 239 13 is_stmt 1 view .LVU429
 1284              		.loc 1 239 48 is_stmt 0 view .LVU430
 1285 00b6 D389     		ldrh	r3, [r2, #14]
 1286              		.loc 1 239 29 view .LVU431
 1287 00b8 C3F34E03 		ubfx	r3, r3, #1, #15
 1288              		.loc 1 239 57 view .LVU432
 1289 00bc A3F28B33 		subw	r3, r3, #907
 1290              		.loc 1 239 21 view .LVU433
ARM GAS  /tmp/ccRfXhtH.s 			page 28


 1291 00c0 1BB2     		sxth	r3, r3
 1292              	.LVL76:
 240:Core/Src/cnc_core.c ****             info->commanded.speed.x = (abs(jogX) > 70) ? jogX*4 : 0;  // dead zone near center X
 1293              		.loc 1 240 13 is_stmt 1 view .LVU434
 1294              		.loc 1 240 40 is_stmt 0 view .LVU435
 1295 00c2 81EAE172 		eor	r2, r1, r1, asr #31
 1296              	.LVL77:
 1297              		.loc 1 240 40 view .LVU436
 1298 00c6 A2EBE172 		sub	r2, r2, r1, asr #31
 1299 00ca 92B2     		uxth	r2, r2
 1300              		.loc 1 240 65 view .LVU437
 1301 00cc 462A     		cmp	r2, #70
 1302 00ce 01D9     		bls	.L105
 1303              		.loc 1 240 65 discriminator 1 view .LVU438
 1304 00d0 8900     		lsls	r1, r1, #2
 1305              	.LVL78:
 1306              		.loc 1 240 65 discriminator 1 view .LVU439
 1307 00d2 00E0     		b	.L86
 1308              	.LVL79:
 1309              	.L105:
 1310              		.loc 1 240 65 view .LVU440
 1311 00d4 0021     		movs	r1, #0
 1312              	.LVL80:
 1313              	.L86:
 1314              		.loc 1 240 37 discriminator 4 view .LVU441
 1315 00d6 6161     		str	r1, [r4, #20]
 241:Core/Src/cnc_core.c ****             info->commanded.speed.y = (abs(jogY) > 70) ? jogY*4 : 0;  // dead zone near center Y
 1316              		.loc 1 241 13 is_stmt 1 discriminator 4 view .LVU442
 1317              		.loc 1 241 40 is_stmt 0 discriminator 4 view .LVU443
 1318 00d8 83EAE372 		eor	r2, r3, r3, asr #31
 1319 00dc A2EBE372 		sub	r2, r2, r3, asr #31
 1320 00e0 92B2     		uxth	r2, r2
 1321              		.loc 1 241 65 discriminator 4 view .LVU444
 1322 00e2 462A     		cmp	r2, #70
 1323 00e4 01D9     		bls	.L106
 1324              		.loc 1 241 65 discriminator 1 view .LVU445
 1325 00e6 9B00     		lsls	r3, r3, #2
 1326              	.LVL81:
 1327              		.loc 1 241 65 discriminator 1 view .LVU446
 1328 00e8 00E0     		b	.L87
 1329              	.LVL82:
 1330              	.L106:
 1331              		.loc 1 241 65 view .LVU447
 1332 00ea 0023     		movs	r3, #0
 1333              	.LVL83:
 1334              	.L87:
 1335              		.loc 1 241 37 discriminator 4 view .LVU448
 1336 00ec A361     		str	r3, [r4, #24]
 242:Core/Src/cnc_core.c ****             CNC_Jog(info);
 1337              		.loc 1 242 13 is_stmt 1 discriminator 4 view .LVU449
 1338 00ee 2046     		mov	r0, r4
 1339              	.LVL84:
 1340              		.loc 1 242 13 is_stmt 0 discriminator 4 view .LVU450
 1341 00f0 FFF7FEFF 		bl	CNC_Jog
 1342              	.LVL85:
 243:Core/Src/cnc_core.c ****         break;
 1343              		.loc 1 243 9 is_stmt 1 discriminator 4 view .LVU451
ARM GAS  /tmp/ccRfXhtH.s 			page 29


 1344              	.L73:
 1345              		.loc 1 243 9 is_stmt 0 discriminator 4 view .LVU452
 1346              	.LBE2:
 244:Core/Src/cnc_core.c **** 
 245:Core/Src/cnc_core.c ****         case  HMI_Mode_Face:
 246:Core/Src/cnc_core.c ****             if(info->state == HMI_State_Run){
 247:Core/Src/cnc_core.c ****                 switch (info->move) {
 248:Core/Src/cnc_core.c ****                     case HMI_Move_None:
 249:Core/Src/cnc_core.c ****                         if(info->P1.x > info->P2.x){
 250:Core/Src/cnc_core.c ****                             uint32_t swapX = info->P1.x;
 251:Core/Src/cnc_core.c ****                             info->P1.x = info->P2.x;
 252:Core/Src/cnc_core.c ****                             info->P2.x = swapX;
 253:Core/Src/cnc_core.c ****                         }
 254:Core/Src/cnc_core.c **** 
 255:Core/Src/cnc_core.c ****                         if(info->P1.y > info->P2.y){
 256:Core/Src/cnc_core.c ****                             uint32_t swapY = info->P1.y;
 257:Core/Src/cnc_core.c ****                             info->P1.y = info->P2.y;
 258:Core/Src/cnc_core.c ****                             info->P2.y = swapY;
 259:Core/Src/cnc_core.c ****                         }
 260:Core/Src/cnc_core.c **** 
 261:Core/Src/cnc_core.c ****                         info->commanded.pos.x = info->P1.x;
 262:Core/Src/cnc_core.c ****                         info->commanded.pos.y = info->P1.y;
 263:Core/Src/cnc_core.c ****                         info->move = HMI_Move_Absolute;
 264:Core/Src/cnc_core.c ****                     break;
 265:Core/Src/cnc_core.c **** 
 266:Core/Src/cnc_core.c ****                     case HMI_Move_Face1:
 267:Core/Src/cnc_core.c ****                         info->commanded.pos.x = info->P2.x;
 268:Core/Src/cnc_core.c ****                         if(CNC_AbsoluteX(info))
 269:Core/Src/cnc_core.c ****                             info->move = HMI_Move_Face2;
 270:Core/Src/cnc_core.c ****                     break;
 271:Core/Src/cnc_core.c **** 
 272:Core/Src/cnc_core.c ****                     case HMI_Move_Face2:
 273:Core/Src/cnc_core.c ****                         uint32_t newPosY = info->pos.y + face_depth_Y;
 274:Core/Src/cnc_core.c ****                         if(newPosY < info->P2.y)
 275:Core/Src/cnc_core.c ****                             info->commanded.pos.y = newPosY;
 276:Core/Src/cnc_core.c ****                         else
 277:Core/Src/cnc_core.c ****                             info->commanded.pos.y = info->P2.y;
 278:Core/Src/cnc_core.c ****                         if(CNC_AbsoluteY(info))
 279:Core/Src/cnc_core.c ****                             info->move = HMI_Move_Face3;
 280:Core/Src/cnc_core.c ****                     break;
 281:Core/Src/cnc_core.c **** 
 282:Core/Src/cnc_core.c ****                     case HMI_Move_Face3:
 283:Core/Src/cnc_core.c ****                         info->commanded.pos.x = info->P1.x;
 284:Core/Src/cnc_core.c ****                         if(CNC_AbsoluteX(info)){
 285:Core/Src/cnc_core.c ****                             if(info->pos.y >= info->P2.y){
 286:Core/Src/cnc_core.c ****                                 info->move = HMI_Move_None;
 287:Core/Src/cnc_core.c ****                                 info->state = HMI_State_Stop;
 288:Core/Src/cnc_core.c ****                             }
 289:Core/Src/cnc_core.c ****                             else
 290:Core/Src/cnc_core.c ****                                 info->move = HMI_Move_Face4;
 291:Core/Src/cnc_core.c ****                         }
 292:Core/Src/cnc_core.c ****                     break;
 293:Core/Src/cnc_core.c **** 
 294:Core/Src/cnc_core.c ****                     case HMI_Move_Face4:
 295:Core/Src/cnc_core.c ****                         info->commanded.pos.y = info->pos.y - face_retract_Y;
 296:Core/Src/cnc_core.c ****                         if(CNC_AbsoluteY(info))
 297:Core/Src/cnc_core.c ****                             info->move = HMI_Move_Face1;
ARM GAS  /tmp/ccRfXhtH.s 			page 30


 298:Core/Src/cnc_core.c ****                     break;
 299:Core/Src/cnc_core.c **** 
 300:Core/Src/cnc_core.c ****                     case HMI_Move_Done:
 301:Core/Src/cnc_core.c ****                         info->move = HMI_Move_Face1;
 302:Core/Src/cnc_core.c ****                     break;
 303:Core/Src/cnc_core.c **** 
 304:Core/Src/cnc_core.c ****                     case HMI_Move_Absolute:
 305:Core/Src/cnc_core.c ****                         CNC_Absolute(info);
 306:Core/Src/cnc_core.c ****                     break;
 307:Core/Src/cnc_core.c **** 
 308:Core/Src/cnc_core.c ****                     default:
 309:Core/Src/cnc_core.c ****                         info->move = HMI_Move_None;
 310:Core/Src/cnc_core.c ****                     break;
 311:Core/Src/cnc_core.c ****                 }
 312:Core/Src/cnc_core.c ****             }
 313:Core/Src/cnc_core.c ****         break; 
 314:Core/Src/cnc_core.c **** 
 315:Core/Src/cnc_core.c ****         case  HMI_Mode_Ser:
 316:Core/Src/cnc_core.c ****             if(info->state == HMI_State_Run){
 317:Core/Src/cnc_core.c ****                 switch (info->move) {
 318:Core/Src/cnc_core.c ****                 case HMI_Move_None:
 319:Core/Src/cnc_core.c ****                     //HAL_UART_Receive_DMA(&huart1, UART1_rxBuffer, 12);
 320:Core/Src/cnc_core.c ****                     //if(ReadGcode(huart, info)) 
 321:Core/Src/cnc_core.c ****                     //    info->move = HMI_Move_Absolute; 
 322:Core/Src/cnc_core.c ****                     //else
 323:Core/Src/cnc_core.c ****                     //    WriteACK(huart, false);
 324:Core/Src/cnc_core.c ****                 break;
 325:Core/Src/cnc_core.c **** 
 326:Core/Src/cnc_core.c ****                 case HMI_Move_Done:
 327:Core/Src/cnc_core.c ****                     info->move = HMI_Move_None;
 328:Core/Src/cnc_core.c ****                     info->update = true;
 329:Core/Src/cnc_core.c ****                     WriteACK(huart, true);
 330:Core/Src/cnc_core.c ****                 break;
 331:Core/Src/cnc_core.c **** 
 332:Core/Src/cnc_core.c ****                 case HMI_Move_Absolute:
 333:Core/Src/cnc_core.c ****                     CNC_Absolute(info);
 334:Core/Src/cnc_core.c ****                 break;
 335:Core/Src/cnc_core.c **** 
 336:Core/Src/cnc_core.c ****                 default:
 337:Core/Src/cnc_core.c ****                     info->move = HMI_Move_None;
 338:Core/Src/cnc_core.c ****                 break;
 339:Core/Src/cnc_core.c ****                 }
 340:Core/Src/cnc_core.c ****             }            
 341:Core/Src/cnc_core.c ****         break;
 342:Core/Src/cnc_core.c ****     }
 343:Core/Src/cnc_core.c **** }
 1347              		.loc 1 343 1 view .LVU453
 1348 00f4 10BD     		pop	{r4, pc}
 1349              	.LVL86:
 1350              	.L77:
 1351              	.LBB6:
 246:Core/Src/cnc_core.c ****                 switch (info->move) {
 1352              		.loc 1 246 13 is_stmt 1 view .LVU454
 246:Core/Src/cnc_core.c ****                 switch (info->move) {
 1353              		.loc 1 246 20 is_stmt 0 view .LVU455
 1354 00f6 6378     		ldrb	r3, [r4, #1]	@ zero_extendqisi2
 246:Core/Src/cnc_core.c ****                 switch (info->move) {
ARM GAS  /tmp/ccRfXhtH.s 			page 31


 1355              		.loc 1 246 15 view .LVU456
 1356 00f8 022B     		cmp	r3, #2
 1357 00fa FBD1     		bne	.L73
 247:Core/Src/cnc_core.c ****                     case HMI_Move_None:
 1358              		.loc 1 247 17 is_stmt 1 view .LVU457
 247:Core/Src/cnc_core.c ****                     case HMI_Move_None:
 1359              		.loc 1 247 29 is_stmt 0 view .LVU458
 1360 00fc A378     		ldrb	r3, [r4, #2]	@ zero_extendqisi2
 1361 00fe 072B     		cmp	r3, #7
 1362 0100 59D8     		bhi	.L88
 1363 0102 DFE803F0 		tbb	[pc, r3]
 1364              	.LVL87:
 1365              	.L90:
 1366 0106 54       		.byte	(.L96-.L90)/2
 1367 0107 58       		.byte	(.L88-.L90)/2
 1368 0108 04       		.byte	(.L95-.L90)/2
 1369 0109 51       		.byte	(.L94-.L90)/2
 1370 010a 17       		.byte	(.L93-.L90)/2
 1371 010b 21       		.byte	(.L92-.L90)/2
 1372 010c 32       		.byte	(.L91-.L90)/2
 1373 010d 45       		.byte	(.L89-.L90)/2
 1374              		.p2align 1
 1375              	.L95:
 1376              	.LBB3:
 249:Core/Src/cnc_core.c ****                             uint32_t swapX = info->P1.x;
 1377              		.loc 1 249 25 is_stmt 1 view .LVU459
 249:Core/Src/cnc_core.c ****                             uint32_t swapX = info->P1.x;
 1378              		.loc 1 249 36 is_stmt 0 view .LVU460
 1379 010e 236A     		ldr	r3, [r4, #32]
 249:Core/Src/cnc_core.c ****                             uint32_t swapX = info->P1.x;
 1380              		.loc 1 249 49 view .LVU461
 1381 0110 A26A     		ldr	r2, [r4, #40]
 249:Core/Src/cnc_core.c ****                             uint32_t swapX = info->P1.x;
 1382              		.loc 1 249 27 view .LVU462
 1383 0112 9342     		cmp	r3, r2
 1384 0114 01D9     		bls	.L97
 1385              	.LBB4:
 250:Core/Src/cnc_core.c ****                             info->P1.x = info->P2.x;
 1386              		.loc 1 250 29 is_stmt 1 view .LVU463
 1387              	.LVL88:
 251:Core/Src/cnc_core.c ****                             info->P2.x = swapX;
 1388              		.loc 1 251 29 view .LVU464
 251:Core/Src/cnc_core.c ****                             info->P2.x = swapX;
 1389              		.loc 1 251 40 is_stmt 0 view .LVU465
 1390 0116 2262     		str	r2, [r4, #32]
 252:Core/Src/cnc_core.c ****                         }
 1391              		.loc 1 252 29 is_stmt 1 view .LVU466
 252:Core/Src/cnc_core.c ****                         }
 1392              		.loc 1 252 40 is_stmt 0 view .LVU467
 1393 0118 A362     		str	r3, [r4, #40]
 1394              	.LVL89:
 1395              	.L97:
 252:Core/Src/cnc_core.c ****                         }
 1396              		.loc 1 252 40 view .LVU468
 1397              	.LBE4:
 255:Core/Src/cnc_core.c ****                             uint32_t swapY = info->P1.y;
 1398              		.loc 1 255 25 is_stmt 1 view .LVU469
ARM GAS  /tmp/ccRfXhtH.s 			page 32


 255:Core/Src/cnc_core.c ****                             uint32_t swapY = info->P1.y;
 1399              		.loc 1 255 36 is_stmt 0 view .LVU470
 1400 011a 636A     		ldr	r3, [r4, #36]
 255:Core/Src/cnc_core.c ****                             uint32_t swapY = info->P1.y;
 1401              		.loc 1 255 49 view .LVU471
 1402 011c E26A     		ldr	r2, [r4, #44]
 255:Core/Src/cnc_core.c ****                             uint32_t swapY = info->P1.y;
 1403              		.loc 1 255 27 view .LVU472
 1404 011e 9342     		cmp	r3, r2
 1405 0120 01D9     		bls	.L98
 1406              	.LBB5:
 256:Core/Src/cnc_core.c ****                             info->P1.y = info->P2.y;
 1407              		.loc 1 256 29 is_stmt 1 view .LVU473
 1408              	.LVL90:
 257:Core/Src/cnc_core.c ****                             info->P2.y = swapY;
 1409              		.loc 1 257 29 view .LVU474
 257:Core/Src/cnc_core.c ****                             info->P2.y = swapY;
 1410              		.loc 1 257 40 is_stmt 0 view .LVU475
 1411 0122 6262     		str	r2, [r4, #36]
 258:Core/Src/cnc_core.c ****                         }
 1412              		.loc 1 258 29 is_stmt 1 view .LVU476
 258:Core/Src/cnc_core.c ****                         }
 1413              		.loc 1 258 40 is_stmt 0 view .LVU477
 1414 0124 E362     		str	r3, [r4, #44]
 1415              	.LVL91:
 1416              	.L98:
 258:Core/Src/cnc_core.c ****                         }
 1417              		.loc 1 258 40 view .LVU478
 1418              	.LBE5:
 261:Core/Src/cnc_core.c ****                         info->commanded.pos.y = info->P1.y;
 1419              		.loc 1 261 25 is_stmt 1 view .LVU479
 261:Core/Src/cnc_core.c ****                         info->commanded.pos.y = info->P1.y;
 1420              		.loc 1 261 57 is_stmt 0 view .LVU480
 1421 0126 236A     		ldr	r3, [r4, #32]
 261:Core/Src/cnc_core.c ****                         info->commanded.pos.y = info->P1.y;
 1422              		.loc 1 261 47 view .LVU481
 1423 0128 6361     		str	r3, [r4, #20]
 262:Core/Src/cnc_core.c ****                         info->move = HMI_Move_Absolute;
 1424              		.loc 1 262 25 is_stmt 1 view .LVU482
 262:Core/Src/cnc_core.c ****                         info->move = HMI_Move_Absolute;
 1425              		.loc 1 262 57 is_stmt 0 view .LVU483
 1426 012a 636A     		ldr	r3, [r4, #36]
 262:Core/Src/cnc_core.c ****                         info->move = HMI_Move_Absolute;
 1427              		.loc 1 262 47 view .LVU484
 1428 012c A361     		str	r3, [r4, #24]
 263:Core/Src/cnc_core.c ****                     break;
 1429              		.loc 1 263 25 is_stmt 1 view .LVU485
 263:Core/Src/cnc_core.c ****                     break;
 1430              		.loc 1 263 36 is_stmt 0 view .LVU486
 1431 012e 0023     		movs	r3, #0
 1432 0130 A370     		strb	r3, [r4, #2]
 264:Core/Src/cnc_core.c **** 
 1433              		.loc 1 264 21 is_stmt 1 view .LVU487
 1434 0132 DFE7     		b	.L73
 1435              	.L93:
 267:Core/Src/cnc_core.c ****                         if(CNC_AbsoluteX(info))
 1436              		.loc 1 267 25 view .LVU488
ARM GAS  /tmp/ccRfXhtH.s 			page 33


 267:Core/Src/cnc_core.c ****                         if(CNC_AbsoluteX(info))
 1437              		.loc 1 267 57 is_stmt 0 view .LVU489
 1438 0134 A36A     		ldr	r3, [r4, #40]
 267:Core/Src/cnc_core.c ****                         if(CNC_AbsoluteX(info))
 1439              		.loc 1 267 47 view .LVU490
 1440 0136 6361     		str	r3, [r4, #20]
 268:Core/Src/cnc_core.c ****                             info->move = HMI_Move_Face2;
 1441              		.loc 1 268 25 is_stmt 1 view .LVU491
 268:Core/Src/cnc_core.c ****                             info->move = HMI_Move_Face2;
 1442              		.loc 1 268 28 is_stmt 0 view .LVU492
 1443 0138 2046     		mov	r0, r4
 1444              	.LVL92:
 268:Core/Src/cnc_core.c ****                             info->move = HMI_Move_Face2;
 1445              		.loc 1 268 28 view .LVU493
 1446 013a FFF7FEFF 		bl	CNC_AbsoluteX
 1447              	.LVL93:
 268:Core/Src/cnc_core.c ****                             info->move = HMI_Move_Face2;
 1448              		.loc 1 268 27 view .LVU494
 1449 013e 0028     		cmp	r0, #0
 1450 0140 D8D0     		beq	.L73
 269:Core/Src/cnc_core.c ****                     break;
 1451              		.loc 1 269 29 is_stmt 1 view .LVU495
 269:Core/Src/cnc_core.c ****                     break;
 1452              		.loc 1 269 40 is_stmt 0 view .LVU496
 1453 0142 0523     		movs	r3, #5
 1454 0144 A370     		strb	r3, [r4, #2]
 1455 0146 D5E7     		b	.L73
 1456              	.LVL94:
 1457              	.L92:
 273:Core/Src/cnc_core.c ****                         if(newPosY < info->P2.y)
 1458              		.loc 1 273 25 is_stmt 1 view .LVU497
 273:Core/Src/cnc_core.c ****                         if(newPosY < info->P2.y)
 1459              		.loc 1 273 53 is_stmt 0 view .LVU498
 1460 0148 A368     		ldr	r3, [r4, #8]
 273:Core/Src/cnc_core.c ****                         if(newPosY < info->P2.y)
 1461              		.loc 1 273 34 view .LVU499
 1462 014a 03F5BE73 		add	r3, r3, #380
 1463              	.LVL95:
 274:Core/Src/cnc_core.c ****                             info->commanded.pos.y = newPosY;
 1464              		.loc 1 274 25 is_stmt 1 view .LVU500
 274:Core/Src/cnc_core.c ****                             info->commanded.pos.y = newPosY;
 1465              		.loc 1 274 46 is_stmt 0 view .LVU501
 1466 014e E26A     		ldr	r2, [r4, #44]
 274:Core/Src/cnc_core.c ****                             info->commanded.pos.y = newPosY;
 1467              		.loc 1 274 27 view .LVU502
 1468 0150 9A42     		cmp	r2, r3
 1469 0152 08D9     		bls	.L99
 275:Core/Src/cnc_core.c ****                         else
 1470              		.loc 1 275 29 is_stmt 1 view .LVU503
 275:Core/Src/cnc_core.c ****                         else
 1471              		.loc 1 275 51 is_stmt 0 view .LVU504
 1472 0154 A361     		str	r3, [r4, #24]
 1473              	.L100:
 278:Core/Src/cnc_core.c ****                             info->move = HMI_Move_Face3;
 1474              		.loc 1 278 25 is_stmt 1 view .LVU505
 278:Core/Src/cnc_core.c ****                             info->move = HMI_Move_Face3;
 1475              		.loc 1 278 28 is_stmt 0 view .LVU506
ARM GAS  /tmp/ccRfXhtH.s 			page 34


 1476 0156 2046     		mov	r0, r4
 1477              	.LVL96:
 278:Core/Src/cnc_core.c ****                             info->move = HMI_Move_Face3;
 1478              		.loc 1 278 28 view .LVU507
 1479 0158 FFF7FEFF 		bl	CNC_AbsoluteY
 1480              	.LVL97:
 278:Core/Src/cnc_core.c ****                             info->move = HMI_Move_Face3;
 1481              		.loc 1 278 27 view .LVU508
 1482 015c 0028     		cmp	r0, #0
 1483 015e C9D0     		beq	.L73
 279:Core/Src/cnc_core.c ****                     break;
 1484              		.loc 1 279 29 is_stmt 1 view .LVU509
 279:Core/Src/cnc_core.c ****                     break;
 1485              		.loc 1 279 40 is_stmt 0 view .LVU510
 1486 0160 0623     		movs	r3, #6
 1487 0162 A370     		strb	r3, [r4, #2]
 1488 0164 C6E7     		b	.L73
 1489              	.LVL98:
 1490              	.L99:
 277:Core/Src/cnc_core.c ****                         if(CNC_AbsoluteY(info))
 1491              		.loc 1 277 29 is_stmt 1 view .LVU511
 277:Core/Src/cnc_core.c ****                         if(CNC_AbsoluteY(info))
 1492              		.loc 1 277 51 is_stmt 0 view .LVU512
 1493 0166 A261     		str	r2, [r4, #24]
 1494 0168 F5E7     		b	.L100
 1495              	.LVL99:
 1496              	.L91:
 283:Core/Src/cnc_core.c ****                         if(CNC_AbsoluteX(info)){
 1497              		.loc 1 283 25 is_stmt 1 view .LVU513
 283:Core/Src/cnc_core.c ****                         if(CNC_AbsoluteX(info)){
 1498              		.loc 1 283 57 is_stmt 0 view .LVU514
 1499 016a 236A     		ldr	r3, [r4, #32]
 283:Core/Src/cnc_core.c ****                         if(CNC_AbsoluteX(info)){
 1500              		.loc 1 283 47 view .LVU515
 1501 016c 6361     		str	r3, [r4, #20]
 284:Core/Src/cnc_core.c ****                             if(info->pos.y >= info->P2.y){
 1502              		.loc 1 284 25 is_stmt 1 view .LVU516
 284:Core/Src/cnc_core.c ****                             if(info->pos.y >= info->P2.y){
 1503              		.loc 1 284 28 is_stmt 0 view .LVU517
 1504 016e 2046     		mov	r0, r4
 1505              	.LVL100:
 284:Core/Src/cnc_core.c ****                             if(info->pos.y >= info->P2.y){
 1506              		.loc 1 284 28 view .LVU518
 1507 0170 FFF7FEFF 		bl	CNC_AbsoluteX
 1508              	.LVL101:
 284:Core/Src/cnc_core.c ****                             if(info->pos.y >= info->P2.y){
 1509              		.loc 1 284 27 view .LVU519
 1510 0174 0028     		cmp	r0, #0
 1511 0176 BDD0     		beq	.L73
 285:Core/Src/cnc_core.c ****                                 info->move = HMI_Move_None;
 1512              		.loc 1 285 29 is_stmt 1 view .LVU520
 285:Core/Src/cnc_core.c ****                                 info->move = HMI_Move_None;
 1513              		.loc 1 285 41 is_stmt 0 view .LVU521
 1514 0178 A268     		ldr	r2, [r4, #8]
 285:Core/Src/cnc_core.c ****                                 info->move = HMI_Move_None;
 1515              		.loc 1 285 55 view .LVU522
 1516 017a E36A     		ldr	r3, [r4, #44]
ARM GAS  /tmp/ccRfXhtH.s 			page 35


 285:Core/Src/cnc_core.c ****                                 info->move = HMI_Move_None;
 1517              		.loc 1 285 31 view .LVU523
 1518 017c 9A42     		cmp	r2, r3
 1519 017e 04D3     		bcc	.L101
 286:Core/Src/cnc_core.c ****                                 info->state = HMI_State_Stop;
 1520              		.loc 1 286 33 is_stmt 1 view .LVU524
 286:Core/Src/cnc_core.c ****                                 info->state = HMI_State_Stop;
 1521              		.loc 1 286 44 is_stmt 0 view .LVU525
 1522 0180 0223     		movs	r3, #2
 1523 0182 A370     		strb	r3, [r4, #2]
 287:Core/Src/cnc_core.c ****                             }
 1524              		.loc 1 287 33 is_stmt 1 view .LVU526
 287:Core/Src/cnc_core.c ****                             }
 1525              		.loc 1 287 45 is_stmt 0 view .LVU527
 1526 0184 0023     		movs	r3, #0
 1527 0186 6370     		strb	r3, [r4, #1]
 1528 0188 B4E7     		b	.L73
 1529              	.L101:
 290:Core/Src/cnc_core.c ****                         }
 1530              		.loc 1 290 33 is_stmt 1 view .LVU528
 290:Core/Src/cnc_core.c ****                         }
 1531              		.loc 1 290 44 is_stmt 0 view .LVU529
 1532 018a 0723     		movs	r3, #7
 1533 018c A370     		strb	r3, [r4, #2]
 1534 018e B1E7     		b	.L73
 1535              	.LVL102:
 1536              	.L89:
 295:Core/Src/cnc_core.c ****                         if(CNC_AbsoluteY(info))
 1537              		.loc 1 295 25 is_stmt 1 view .LVU530
 295:Core/Src/cnc_core.c ****                         if(CNC_AbsoluteY(info))
 1538              		.loc 1 295 58 is_stmt 0 view .LVU531
 1539 0190 A368     		ldr	r3, [r4, #8]
 295:Core/Src/cnc_core.c ****                         if(CNC_AbsoluteY(info))
 1540              		.loc 1 295 61 view .LVU532
 1541 0192 A3F5BE73 		sub	r3, r3, #380
 295:Core/Src/cnc_core.c ****                         if(CNC_AbsoluteY(info))
 1542              		.loc 1 295 47 view .LVU533
 1543 0196 A361     		str	r3, [r4, #24]
 296:Core/Src/cnc_core.c ****                             info->move = HMI_Move_Face1;
 1544              		.loc 1 296 25 is_stmt 1 view .LVU534
 296:Core/Src/cnc_core.c ****                             info->move = HMI_Move_Face1;
 1545              		.loc 1 296 28 is_stmt 0 view .LVU535
 1546 0198 2046     		mov	r0, r4
 1547              	.LVL103:
 296:Core/Src/cnc_core.c ****                             info->move = HMI_Move_Face1;
 1548              		.loc 1 296 28 view .LVU536
 1549 019a FFF7FEFF 		bl	CNC_AbsoluteY
 1550              	.LVL104:
 296:Core/Src/cnc_core.c ****                             info->move = HMI_Move_Face1;
 1551              		.loc 1 296 27 view .LVU537
 1552 019e 0028     		cmp	r0, #0
 1553 01a0 A8D0     		beq	.L73
 297:Core/Src/cnc_core.c ****                     break;
 1554              		.loc 1 297 29 is_stmt 1 view .LVU538
 297:Core/Src/cnc_core.c ****                     break;
 1555              		.loc 1 297 40 is_stmt 0 view .LVU539
 1556 01a2 0423     		movs	r3, #4
ARM GAS  /tmp/ccRfXhtH.s 			page 36


 1557 01a4 A370     		strb	r3, [r4, #2]
 1558 01a6 A5E7     		b	.L73
 1559              	.LVL105:
 1560              	.L94:
 301:Core/Src/cnc_core.c ****                     break;
 1561              		.loc 1 301 25 is_stmt 1 view .LVU540
 301:Core/Src/cnc_core.c ****                     break;
 1562              		.loc 1 301 36 is_stmt 0 view .LVU541
 1563 01a8 0423     		movs	r3, #4
 1564 01aa A370     		strb	r3, [r4, #2]
 302:Core/Src/cnc_core.c **** 
 1565              		.loc 1 302 21 is_stmt 1 view .LVU542
 1566 01ac A2E7     		b	.L73
 1567              	.L96:
 305:Core/Src/cnc_core.c ****                     break;
 1568              		.loc 1 305 25 view .LVU543
 1569 01ae 2046     		mov	r0, r4
 1570              	.LVL106:
 305:Core/Src/cnc_core.c ****                     break;
 1571              		.loc 1 305 25 is_stmt 0 view .LVU544
 1572 01b0 FFF7FEFF 		bl	CNC_Absolute
 1573              	.LVL107:
 306:Core/Src/cnc_core.c **** 
 1574              		.loc 1 306 21 is_stmt 1 view .LVU545
 1575 01b4 9EE7     		b	.L73
 1576              	.LVL108:
 1577              	.L88:
 309:Core/Src/cnc_core.c ****                     break;
 1578              		.loc 1 309 25 view .LVU546
 309:Core/Src/cnc_core.c ****                     break;
 1579              		.loc 1 309 36 is_stmt 0 view .LVU547
 1580 01b6 0223     		movs	r3, #2
 1581 01b8 A370     		strb	r3, [r4, #2]
 310:Core/Src/cnc_core.c ****                 }
 1582              		.loc 1 310 21 is_stmt 1 view .LVU548
 1583 01ba 9BE7     		b	.L73
 1584              	.LVL109:
 1585              	.L75:
 310:Core/Src/cnc_core.c ****                 }
 1586              		.loc 1 310 21 is_stmt 0 view .LVU549
 1587              	.LBE3:
 316:Core/Src/cnc_core.c ****                 switch (info->move) {
 1588              		.loc 1 316 13 is_stmt 1 view .LVU550
 316:Core/Src/cnc_core.c ****                 switch (info->move) {
 1589              		.loc 1 316 20 is_stmt 0 view .LVU551
 1590 01bc 6378     		ldrb	r3, [r4, #1]	@ zero_extendqisi2
 316:Core/Src/cnc_core.c ****                 switch (info->move) {
 1591              		.loc 1 316 15 view .LVU552
 1592 01be 022B     		cmp	r3, #2
 1593 01c0 98D1     		bne	.L73
 317:Core/Src/cnc_core.c ****                 case HMI_Move_None:
 1594              		.loc 1 317 17 is_stmt 1 view .LVU553
 317:Core/Src/cnc_core.c ****                 case HMI_Move_None:
 1595              		.loc 1 317 29 is_stmt 0 view .LVU554
 1596 01c2 A378     		ldrb	r3, [r4, #2]	@ zero_extendqisi2
 1597 01c4 022B     		cmp	r3, #2
 1598 01c6 95D0     		beq	.L73
ARM GAS  /tmp/ccRfXhtH.s 			page 37


 1599 01c8 032B     		cmp	r3, #3
 1600 01ca 03D0     		beq	.L102
 1601 01cc 53B1     		cbz	r3, .L110
 337:Core/Src/cnc_core.c ****                 break;
 1602              		.loc 1 337 21 is_stmt 1 view .LVU555
 337:Core/Src/cnc_core.c ****                 break;
 1603              		.loc 1 337 32 is_stmt 0 view .LVU556
 1604 01ce 0223     		movs	r3, #2
 1605 01d0 A370     		strb	r3, [r4, #2]
 338:Core/Src/cnc_core.c ****                 }
 1606              		.loc 1 338 17 is_stmt 1 view .LVU557
 1607              	.LBE6:
 1608              		.loc 1 343 1 is_stmt 0 view .LVU558
 1609 01d2 8FE7     		b	.L73
 1610              	.L102:
 1611              	.LBB7:
 327:Core/Src/cnc_core.c ****                     info->update = true;
 1612              		.loc 1 327 21 is_stmt 1 view .LVU559
 327:Core/Src/cnc_core.c ****                     info->update = true;
 1613              		.loc 1 327 32 is_stmt 0 view .LVU560
 1614 01d4 0223     		movs	r3, #2
 1615 01d6 A370     		strb	r3, [r4, #2]
 328:Core/Src/cnc_core.c ****                     WriteACK(huart, true);
 1616              		.loc 1 328 21 is_stmt 1 view .LVU561
 328:Core/Src/cnc_core.c ****                     WriteACK(huart, true);
 1617              		.loc 1 328 34 is_stmt 0 view .LVU562
 1618 01d8 0121     		movs	r1, #1
 1619 01da 84F83510 		strb	r1, [r4, #53]
 329:Core/Src/cnc_core.c ****                 break;
 1620              		.loc 1 329 21 is_stmt 1 view .LVU563
 1621 01de FFF7FEFF 		bl	WriteACK
 1622              	.LVL110:
 330:Core/Src/cnc_core.c **** 
 1623              		.loc 1 330 17 view .LVU564
 1624 01e2 87E7     		b	.L73
 1625              	.LVL111:
 1626              	.L110:
 333:Core/Src/cnc_core.c ****                 break;
 1627              		.loc 1 333 21 view .LVU565
 1628 01e4 2046     		mov	r0, r4
 1629              	.LVL112:
 333:Core/Src/cnc_core.c ****                 break;
 1630              		.loc 1 333 21 is_stmt 0 view .LVU566
 1631 01e6 FFF7FEFF 		bl	CNC_Absolute
 1632              	.LVL113:
 334:Core/Src/cnc_core.c **** 
 1633              		.loc 1 334 17 is_stmt 1 view .LVU567
 1634 01ea 83E7     		b	.L73
 1635              	.L112:
 1636              		.align	2
 1637              	.L111:
 1638 01ec 000C0048 		.word	1207962624
 1639              	.LBE7:
 1640              		.cfi_endproc
 1641              	.LFE298:
 1643              		.section	.text.CNC_Stop,"ax",%progbits
 1644              		.align	1
ARM GAS  /tmp/ccRfXhtH.s 			page 38


 1645              		.global	CNC_Stop
 1646              		.syntax unified
 1647              		.thumb
 1648              		.thumb_func
 1650              	CNC_Stop:
 1651              	.LVL114:
 1652              	.LFB299:
 344:Core/Src/cnc_core.c **** 
 345:Core/Src/cnc_core.c **** void CNC_Stop(HMI_info_t* const info){
 1653              		.loc 1 345 38 view -0
 1654              		.cfi_startproc
 1655              		@ args = 0, pretend = 0, frame = 0
 1656              		@ frame_needed = 0, uses_anonymous_args = 0
 1657              		@ link register save eliminated.
 346:Core/Src/cnc_core.c ****     info->htimX->Instance->CR1 |= TIM_CR1_OPM;
 1658              		.loc 1 346 5 view .LVU569
 1659              		.loc 1 346 9 is_stmt 0 view .LVU570
 1660 0000 036C     		ldr	r3, [r0, #64]
 1661              		.loc 1 346 16 view .LVU571
 1662 0002 1A68     		ldr	r2, [r3]
 1663              		.loc 1 346 32 view .LVU572
 1664 0004 1368     		ldr	r3, [r2]
 1665 0006 43F00803 		orr	r3, r3, #8
 1666 000a 1360     		str	r3, [r2]
 347:Core/Src/cnc_core.c ****     info->htimY->Instance->CR1 |= TIM_CR1_OPM;
 1667              		.loc 1 347 5 is_stmt 1 view .LVU573
 1668              		.loc 1 347 9 is_stmt 0 view .LVU574
 1669 000c 436C     		ldr	r3, [r0, #68]
 1670              		.loc 1 347 16 view .LVU575
 1671 000e 1A68     		ldr	r2, [r3]
 1672              		.loc 1 347 32 view .LVU576
 1673 0010 1368     		ldr	r3, [r2]
 1674 0012 43F00803 		orr	r3, r3, #8
 1675 0016 1360     		str	r3, [r2]
 348:Core/Src/cnc_core.c ****     info->htimX->Instance->SR = 0x00000000U;
 1676              		.loc 1 348 5 is_stmt 1 view .LVU577
 1677              		.loc 1 348 9 is_stmt 0 view .LVU578
 1678 0018 036C     		ldr	r3, [r0, #64]
 1679              		.loc 1 348 16 view .LVU579
 1680 001a 1A68     		ldr	r2, [r3]
 1681              		.loc 1 348 31 view .LVU580
 1682 001c 0023     		movs	r3, #0
 1683 001e 1361     		str	r3, [r2, #16]
 349:Core/Src/cnc_core.c ****     info->htimY->Instance->SR = 0x00000000U;
 1684              		.loc 1 349 5 is_stmt 1 view .LVU581
 1685              		.loc 1 349 9 is_stmt 0 view .LVU582
 1686 0020 426C     		ldr	r2, [r0, #68]
 1687              		.loc 1 349 16 view .LVU583
 1688 0022 1268     		ldr	r2, [r2]
 1689              		.loc 1 349 31 view .LVU584
 1690 0024 1361     		str	r3, [r2, #16]
 350:Core/Src/cnc_core.c **** 
 351:Core/Src/cnc_core.c ****     info->run.x = false;
 1691              		.loc 1 351 5 is_stmt 1 view .LVU585
 1692              		.loc 1 351 17 is_stmt 0 view .LVU586
 1693 0026 80F83830 		strb	r3, [r0, #56]
 352:Core/Src/cnc_core.c ****     info->run.y = false;
ARM GAS  /tmp/ccRfXhtH.s 			page 39


 1694              		.loc 1 352 5 is_stmt 1 view .LVU587
 1695              		.loc 1 352 17 is_stmt 0 view .LVU588
 1696 002a 80F83930 		strb	r3, [r0, #57]
 353:Core/Src/cnc_core.c ****     info->state = HMI_State_Stop;
 1697              		.loc 1 353 5 is_stmt 1 view .LVU589
 1698              		.loc 1 353 17 is_stmt 0 view .LVU590
 1699 002e 4370     		strb	r3, [r0, #1]
 354:Core/Src/cnc_core.c ****     info->update = true;
 1700              		.loc 1 354 5 is_stmt 1 view .LVU591
 1701              		.loc 1 354 18 is_stmt 0 view .LVU592
 1702 0030 0123     		movs	r3, #1
 1703 0032 80F83530 		strb	r3, [r0, #53]
 355:Core/Src/cnc_core.c ****     info->cnt2 = 10;
 1704              		.loc 1 355 5 is_stmt 1 view .LVU593
 1705              		.loc 1 355 16 is_stmt 0 view .LVU594
 1706 0036 0A23     		movs	r3, #10
 1707 0038 80F83430 		strb	r3, [r0, #52]
 356:Core/Src/cnc_core.c **** }
 1708              		.loc 1 356 1 view .LVU595
 1709 003c 7047     		bx	lr
 1710              		.cfi_endproc
 1711              	.LFE299:
 1713              		.section	.text.CNC_Limit_X,"ax",%progbits
 1714              		.align	1
 1715              		.global	CNC_Limit_X
 1716              		.syntax unified
 1717              		.thumb
 1718              		.thumb_func
 1720              	CNC_Limit_X:
 1721              	.LVL115:
 1722              	.LFB300:
 357:Core/Src/cnc_core.c **** 
 358:Core/Src/cnc_core.c **** void CNC_Limit_X(HMI_info_t* const info){
 1723              		.loc 1 358 41 is_stmt 1 view -0
 1724              		.cfi_startproc
 1725              		@ args = 0, pretend = 0, frame = 0
 1726              		@ frame_needed = 0, uses_anonymous_args = 0
 1727              		@ link register save eliminated.
 359:Core/Src/cnc_core.c ****     info->htimX->Instance->CR1 |= TIM_CR1_OPM;
 1728              		.loc 1 359 5 view .LVU597
 1729              		.loc 1 359 9 is_stmt 0 view .LVU598
 1730 0000 036C     		ldr	r3, [r0, #64]
 1731              		.loc 1 359 16 view .LVU599
 1732 0002 1A68     		ldr	r2, [r3]
 1733              		.loc 1 359 32 view .LVU600
 1734 0004 1368     		ldr	r3, [r2]
 1735 0006 43F00803 		orr	r3, r3, #8
 1736 000a 1360     		str	r3, [r2]
 360:Core/Src/cnc_core.c ****     info->htimX->Instance->SR = 0x00000000U;
 1737              		.loc 1 360 5 is_stmt 1 view .LVU601
 1738              		.loc 1 360 9 is_stmt 0 view .LVU602
 1739 000c 036C     		ldr	r3, [r0, #64]
 1740              		.loc 1 360 16 view .LVU603
 1741 000e 1A68     		ldr	r2, [r3]
 1742              		.loc 1 360 31 view .LVU604
 1743 0010 0023     		movs	r3, #0
 1744 0012 1361     		str	r3, [r2, #16]
ARM GAS  /tmp/ccRfXhtH.s 			page 40


 361:Core/Src/cnc_core.c **** 
 362:Core/Src/cnc_core.c ****     info->state = HMI_State_Stop;
 1745              		.loc 1 362 5 is_stmt 1 view .LVU605
 1746              		.loc 1 362 17 is_stmt 0 view .LVU606
 1747 0014 4370     		strb	r3, [r0, #1]
 363:Core/Src/cnc_core.c ****     info->pos.x = 0;
 1748              		.loc 1 363 5 is_stmt 1 view .LVU607
 1749              		.loc 1 363 17 is_stmt 0 view .LVU608
 1750 0016 4360     		str	r3, [r0, #4]
 364:Core/Src/cnc_core.c ****     info->zeroed.x = true;
 1751              		.loc 1 364 5 is_stmt 1 view .LVU609
 1752              		.loc 1 364 20 is_stmt 0 view .LVU610
 1753 0018 0122     		movs	r2, #1
 1754 001a 80F83A20 		strb	r2, [r0, #58]
 365:Core/Src/cnc_core.c ****     info->update = true;
 1755              		.loc 1 365 5 is_stmt 1 view .LVU611
 1756              		.loc 1 365 18 is_stmt 0 view .LVU612
 1757 001e 80F83520 		strb	r2, [r0, #53]
 366:Core/Src/cnc_core.c ****     info->run.x = false;
 1758              		.loc 1 366 5 is_stmt 1 view .LVU613
 1759              		.loc 1 366 17 is_stmt 0 view .LVU614
 1760 0022 80F83830 		strb	r3, [r0, #56]
 367:Core/Src/cnc_core.c **** }
 1761              		.loc 1 367 1 view .LVU615
 1762 0026 7047     		bx	lr
 1763              		.cfi_endproc
 1764              	.LFE300:
 1766              		.section	.text.CNC_Limit_Y,"ax",%progbits
 1767              		.align	1
 1768              		.global	CNC_Limit_Y
 1769              		.syntax unified
 1770              		.thumb
 1771              		.thumb_func
 1773              	CNC_Limit_Y:
 1774              	.LVL116:
 1775              	.LFB301:
 368:Core/Src/cnc_core.c **** 
 369:Core/Src/cnc_core.c **** void CNC_Limit_Y(HMI_info_t* const info){
 1776              		.loc 1 369 41 is_stmt 1 view -0
 1777              		.cfi_startproc
 1778              		@ args = 0, pretend = 0, frame = 0
 1779              		@ frame_needed = 0, uses_anonymous_args = 0
 1780              		@ link register save eliminated.
 370:Core/Src/cnc_core.c ****     info->htimY->Instance->CR1 |= TIM_CR1_OPM;
 1781              		.loc 1 370 5 view .LVU617
 1782              		.loc 1 370 9 is_stmt 0 view .LVU618
 1783 0000 436C     		ldr	r3, [r0, #68]
 1784              		.loc 1 370 16 view .LVU619
 1785 0002 1A68     		ldr	r2, [r3]
 1786              		.loc 1 370 32 view .LVU620
 1787 0004 1368     		ldr	r3, [r2]
 1788 0006 43F00803 		orr	r3, r3, #8
 1789 000a 1360     		str	r3, [r2]
 371:Core/Src/cnc_core.c ****     info->htimY->Instance->SR = 0x00000000U;
 1790              		.loc 1 371 5 is_stmt 1 view .LVU621
 1791              		.loc 1 371 9 is_stmt 0 view .LVU622
 1792 000c 436C     		ldr	r3, [r0, #68]
ARM GAS  /tmp/ccRfXhtH.s 			page 41


 1793              		.loc 1 371 16 view .LVU623
 1794 000e 1A68     		ldr	r2, [r3]
 1795              		.loc 1 371 31 view .LVU624
 1796 0010 0023     		movs	r3, #0
 1797 0012 1361     		str	r3, [r2, #16]
 372:Core/Src/cnc_core.c **** 
 373:Core/Src/cnc_core.c ****     info->state = HMI_State_Stop;
 1798              		.loc 1 373 5 is_stmt 1 view .LVU625
 1799              		.loc 1 373 17 is_stmt 0 view .LVU626
 1800 0014 4370     		strb	r3, [r0, #1]
 374:Core/Src/cnc_core.c ****     info->pos.y = 0;
 1801              		.loc 1 374 5 is_stmt 1 view .LVU627
 1802              		.loc 1 374 17 is_stmt 0 view .LVU628
 1803 0016 8360     		str	r3, [r0, #8]
 375:Core/Src/cnc_core.c ****     info->zeroed.y = true;
 1804              		.loc 1 375 5 is_stmt 1 view .LVU629
 1805              		.loc 1 375 20 is_stmt 0 view .LVU630
 1806 0018 0122     		movs	r2, #1
 1807 001a 80F83B20 		strb	r2, [r0, #59]
 376:Core/Src/cnc_core.c ****     info->update = true;
 1808              		.loc 1 376 5 is_stmt 1 view .LVU631
 1809              		.loc 1 376 18 is_stmt 0 view .LVU632
 1810 001e 80F83520 		strb	r2, [r0, #53]
 377:Core/Src/cnc_core.c ****     info->run.y = false;
 1811              		.loc 1 377 5 is_stmt 1 view .LVU633
 1812              		.loc 1 377 17 is_stmt 0 view .LVU634
 1813 0022 80F83930 		strb	r3, [r0, #57]
 378:Core/Src/cnc_core.c **** }
 1814              		.loc 1 378 1 view .LVU635
 1815 0026 7047     		bx	lr
 1816              		.cfi_endproc
 1817              	.LFE301:
 1819              		.text
 1820              	.Letext0:
 1821              		.file 2 "/home/retfie/.config/VSCodium/User/globalStorage/bmd.stm32-for-vscode/@xpack-dev-tools/ar
 1822              		.file 3 "/home/retfie/.config/VSCodium/User/globalStorage/bmd.stm32-for-vscode/@xpack-dev-tools/ar
 1823              		.file 4 "Drivers/CMSIS/Device/ST/STM32L4xx/Include/stm32l431xx.h"
 1824              		.file 5 "Drivers/STM32L4xx_HAL_Driver/Inc/stm32l4xx_hal_def.h"
 1825              		.file 6 "Drivers/STM32L4xx_HAL_Driver/Inc/stm32l4xx_hal_gpio.h"
 1826              		.file 7 "Drivers/STM32L4xx_HAL_Driver/Inc/stm32l4xx_hal_dma.h"
 1827              		.file 8 "Drivers/STM32L4xx_HAL_Driver/Inc/stm32l4xx_hal_tim.h"
 1828              		.file 9 "Drivers/STM32L4xx_HAL_Driver/Inc/stm32l4xx_hal_uart.h"
 1829              		.file 10 "Core/Inc/cnc_info.h"
 1830              		.file 11 "Core/Inc/data_parser.h"
ARM GAS  /tmp/ccRfXhtH.s 			page 42


DEFINED SYMBOLS
                            *ABS*:0000000000000000 cnc_core.c
     /tmp/ccRfXhtH.s:20     .text.ihyp:0000000000000000 $t
     /tmp/ccRfXhtH.s:26     .text.ihyp:0000000000000000 ihyp
     /tmp/ccRfXhtH.s:65     .text.CNC_Stepper:0000000000000000 $t
     /tmp/ccRfXhtH.s:71     .text.CNC_Stepper:0000000000000000 CNC_Stepper
     /tmp/ccRfXhtH.s:362    .text.CNC_Stepper:0000000000000148 $d
     /tmp/ccRfXhtH.s:369    .text.CNC_JogX_Forced:0000000000000000 $t
     /tmp/ccRfXhtH.s:375    .text.CNC_JogX_Forced:0000000000000000 CNC_JogX_Forced
     /tmp/ccRfXhtH.s:438    .text.CNC_JogX_Forced:000000000000003c $d
     /tmp/ccRfXhtH.s:443    .text.CNC_JogY_Forced:0000000000000000 $t
     /tmp/ccRfXhtH.s:449    .text.CNC_JogY_Forced:0000000000000000 CNC_JogY_Forced
     /tmp/ccRfXhtH.s:512    .text.CNC_JogY_Forced:000000000000003c $d
     /tmp/ccRfXhtH.s:517    .text.CNC_Absolute:0000000000000000 $t
     /tmp/ccRfXhtH.s:523    .text.CNC_Absolute:0000000000000000 CNC_Absolute
     /tmp/ccRfXhtH.s:720    .text.CNC_AbsoluteX:0000000000000000 $t
     /tmp/ccRfXhtH.s:726    .text.CNC_AbsoluteX:0000000000000000 CNC_AbsoluteX
     /tmp/ccRfXhtH.s:800    .text.CNC_AbsoluteY:0000000000000000 $t
     /tmp/ccRfXhtH.s:806    .text.CNC_AbsoluteY:0000000000000000 CNC_AbsoluteY
     /tmp/ccRfXhtH.s:880    .text.CNC_Jog:0000000000000000 $t
     /tmp/ccRfXhtH.s:886    .text.CNC_Jog:0000000000000000 CNC_Jog
     /tmp/ccRfXhtH.s:976    .text.CNC_TIM_Callback_X:0000000000000000 $t
     /tmp/ccRfXhtH.s:982    .text.CNC_TIM_Callback_X:0000000000000000 CNC_TIM_Callback_X
     /tmp/ccRfXhtH.s:1039   .text.CNC_TIM_Callback_Y:0000000000000000 $t
     /tmp/ccRfXhtH.s:1045   .text.CNC_TIM_Callback_Y:0000000000000000 CNC_TIM_Callback_Y
     /tmp/ccRfXhtH.s:1102   .text.CNC_HL_Control:0000000000000000 $t
     /tmp/ccRfXhtH.s:1108   .text.CNC_HL_Control:0000000000000000 CNC_HL_Control
     /tmp/ccRfXhtH.s:1132   .text.CNC_HL_Control:0000000000000010 $d
     /tmp/ccRfXhtH.s:1136   .text.CNC_HL_Control:0000000000000018 $t
     /tmp/ccRfXhtH.s:1152   .text.CNC_HL_Control:0000000000000028 $d
     /tmp/ccRfXhtH.s:1162   .text.CNC_HL_Control:0000000000000032 $t
     /tmp/ccRfXhtH.s:1366   .text.CNC_HL_Control:0000000000000106 $d
     /tmp/ccRfXhtH.s:1374   .text.CNC_HL_Control:000000000000010e $t
     /tmp/ccRfXhtH.s:1638   .text.CNC_HL_Control:00000000000001ec $d
     /tmp/ccRfXhtH.s:1644   .text.CNC_Stop:0000000000000000 $t
     /tmp/ccRfXhtH.s:1650   .text.CNC_Stop:0000000000000000 CNC_Stop
     /tmp/ccRfXhtH.s:1714   .text.CNC_Limit_X:0000000000000000 $t
     /tmp/ccRfXhtH.s:1720   .text.CNC_Limit_X:0000000000000000 CNC_Limit_X
     /tmp/ccRfXhtH.s:1767   .text.CNC_Limit_Y:0000000000000000 $t
     /tmp/ccRfXhtH.s:1773   .text.CNC_Limit_Y:0000000000000000 CNC_Limit_Y

UNDEFINED SYMBOLS
HAL_GPIO_ReadPin
HAL_GPIO_WritePin
WriteACK
