ARM GAS  /tmp/cclZJU8r.s 			page 1


   1              		.cpu cortex-m4
   2              		.arch armv7e-m
   3              		.fpu fpv4-sp-d16
   4              		.eabi_attribute 27, 1
   5              		.eabi_attribute 28, 1
   6              		.eabi_attribute 20, 1
   7              		.eabi_attribute 21, 1
   8              		.eabi_attribute 23, 3
   9              		.eabi_attribute 24, 1
  10              		.eabi_attribute 25, 1
  11              		.eabi_attribute 26, 1
  12              		.eabi_attribute 30, 1
  13              		.eabi_attribute 34, 1
  14              		.eabi_attribute 18, 4
  15              		.file	"cnc_core.c"
  16              		.text
  17              	.Ltext0:
  18              		.cfi_sections	.debug_frame
  19              		.section	.text.ihyp,"ax",%progbits
  20              		.align	1
  21              		.global	ihyp
  22              		.syntax unified
  23              		.thumb
  24              		.thumb_func
  26              	ihyp:
  27              	.LVL0:
  28              	.LFB288:
  29              		.file 1 "Core/Src/cnc_core.c"
   1:Core/Src/cnc_core.c **** 
   2:Core/Src/cnc_core.c **** //--- Francesco Osti 29/12/2022 ---//
   3:Core/Src/cnc_core.c **** 
   4:Core/Src/cnc_core.c **** #include "cnc_core.h"
   5:Core/Src/cnc_core.c **** #include "cnc_config.h"
   6:Core/Src/cnc_core.c **** #include "data_parser.h"
   7:Core/Src/cnc_core.c **** #include "main.h"
   8:Core/Src/cnc_core.c **** #include <stdbool.h>
   9:Core/Src/cnc_core.c **** #include <stdlib.h>
  10:Core/Src/cnc_core.c **** 
  11:Core/Src/cnc_core.c **** //very efficient way of approximating hypotenuse using integer numbers
  12:Core/Src/cnc_core.c **** uint32_t ihyp(uint32_t x, uint32_t y){
  30              		.loc 1 12 38 view -0
  31              		.cfi_startproc
  32              		@ args = 0, pretend = 0, frame = 0
  33              		@ frame_needed = 0, uses_anonymous_args = 0
  34              		@ link register save eliminated.
  13:Core/Src/cnc_core.c ****     if(y > x)
  35              		.loc 1 13 5 view .LVU1
  36              		.loc 1 13 7 is_stmt 0 view .LVU2
  37 0000 8142     		cmp	r1, r0
  38 0002 06D9     		bls	.L2
  14:Core/Src/cnc_core.c ****         return y + (((x*x)/y)>>1);
  39              		.loc 1 14 9 is_stmt 1 view .LVU3
  40              		.loc 1 14 24 is_stmt 0 view .LVU4
  41 0004 00FB00F0 		mul	r0, r0, r0
  42              	.LVL1:
  43              		.loc 1 14 27 view .LVU5
  44 0008 B0FBF1F0 		udiv	r0, r0, r1
ARM GAS  /tmp/cclZJU8r.s 			page 2


  45              		.loc 1 14 18 view .LVU6
  46 000c 01EB5000 		add	r0, r1, r0, lsr #1
  47 0010 7047     		bx	lr
  48              	.LVL2:
  49              	.L2:
  15:Core/Src/cnc_core.c ****     else
  16:Core/Src/cnc_core.c ****         return x + (((y*y)/x)>>1);
  50              		.loc 1 16 9 is_stmt 1 view .LVU7
  51              		.loc 1 16 24 is_stmt 0 view .LVU8
  52 0012 01FB01F1 		mul	r1, r1, r1
  53              	.LVL3:
  54              		.loc 1 16 27 view .LVU9
  55 0016 B1FBF0F1 		udiv	r1, r1, r0
  56              		.loc 1 16 18 view .LVU10
  57 001a 00EB5100 		add	r0, r0, r1, lsr #1
  58              	.LVL4:
  17:Core/Src/cnc_core.c **** }
  59              		.loc 1 17 1 view .LVU11
  60 001e 7047     		bx	lr
  61              		.cfi_endproc
  62              	.LFE288:
  64              		.section	.text.CNC_Stepper,"ax",%progbits
  65              		.align	1
  66              		.global	CNC_Stepper
  67              		.syntax unified
  68              		.thumb
  69              		.thumb_func
  71              	CNC_Stepper:
  72              	.LVL5:
  73              	.LFB289:
  18:Core/Src/cnc_core.c **** 
  19:Core/Src/cnc_core.c **** void CNC_Stepper(HMI_info_t* const info){
  74              		.loc 1 19 41 is_stmt 1 view -0
  75              		.cfi_startproc
  76              		@ args = 0, pretend = 0, frame = 0
  77              		@ frame_needed = 0, uses_anonymous_args = 0
  78              		.loc 1 19 41 is_stmt 0 view .LVU13
  79 0000 38B5     		push	{r3, r4, r5, lr}
  80              		.cfi_def_cfa_offset 16
  81              		.cfi_offset 3, -16
  82              		.cfi_offset 4, -12
  83              		.cfi_offset 5, -8
  84              		.cfi_offset 14, -4
  85 0002 0446     		mov	r4, r0
  20:Core/Src/cnc_core.c **** 
  21:Core/Src/cnc_core.c ****     info->runX &= !(HAL_GPIO_ReadPin(limitX_Port, limitX_Pin) || ((info->pos.x == 0) && !info->dir.
  86              		.loc 1 21 5 is_stmt 1 view .LVU14
  87              		.loc 1 21 21 is_stmt 0 view .LVU15
  88 0004 4FF48041 		mov	r1, #16384
  89 0008 5548     		ldr	r0, .L27
  90              	.LVL6:
  91              		.loc 1 21 21 view .LVU16
  92 000a FFF7FEFF 		bl	HAL_GPIO_ReadPin
  93              	.LVL7:
  94              		.loc 1 21 161 view .LVU17
  95 000e 48B9     		cbnz	r0, .L5
  96              		.loc 1 21 77 discriminator 1 view .LVU18
ARM GAS  /tmp/cclZJU8r.s 			page 3


  97 0010 6368     		ldr	r3, [r4, #4]
  98              		.loc 1 21 63 discriminator 1 view .LVU19
  99 0012 0BB9     		cbnz	r3, .L6
 100              		.loc 1 21 99 discriminator 4 view .LVU20
 101 0014 227C     		ldrb	r2, [r4, #16]	@ zero_extendqisi2
 102              		.loc 1 21 86 discriminator 4 view .LVU21
 103 0016 2AB1     		cbz	r2, .L5
 104              	.L6:
 105              		.loc 1 21 19 discriminator 5 view .LVU22
 106 0018 524A     		ldr	r2, .L27+4
 107 001a 9342     		cmp	r3, r2
 108 001c 3FD9     		bls	.L17
 109              		.loc 1 21 156 discriminator 8 view .LVU23
 110 001e 237C     		ldrb	r3, [r4, #16]	@ zero_extendqisi2
 111              		.loc 1 21 144 discriminator 8 view .LVU24
 112 0020 002B     		cmp	r3, #0
 113 0022 3ED0     		beq	.L18
 114              	.L5:
 115              		.loc 1 21 177 discriminator 10 view .LVU25
 116 0024 94F83A30 		ldrb	r3, [r4, #58]	@ zero_extendqisi2
 117              		.loc 1 21 161 discriminator 10 view .LVU26
 118 0028 002B     		cmp	r3, #0
 119 002a 3CD1     		bne	.L19
 120              		.loc 1 21 161 view .LVU27
 121 002c 0122     		movs	r2, #1
 122              	.L7:
 123              		.loc 1 21 16 discriminator 14 view .LVU28
 124 002e 94F83830 		ldrb	r3, [r4, #56]	@ zero_extendqisi2
 125 0032 1340     		ands	r3, r3, r2
 126 0034 84F83830 		strb	r3, [r4, #56]
  22:Core/Src/cnc_core.c ****     info->runY &= !(HAL_GPIO_ReadPin(limitY_Port, limitY_Pin) || ((info->pos.y == 0) && !info->dir.
 127              		.loc 1 22 5 is_stmt 1 discriminator 14 view .LVU29
 128              		.loc 1 22 21 is_stmt 0 discriminator 14 view .LVU30
 129 0038 4FF40041 		mov	r1, #32768
 130 003c 4848     		ldr	r0, .L27
 131 003e FFF7FEFF 		bl	HAL_GPIO_ReadPin
 132              	.LVL8:
 133              		.loc 1 22 161 discriminator 14 view .LVU31
 134 0042 40B9     		cbnz	r0, .L8
 135              		.loc 1 22 77 discriminator 1 view .LVU32
 136 0044 A368     		ldr	r3, [r4, #8]
 137              		.loc 1 22 63 discriminator 1 view .LVU33
 138 0046 0BB9     		cbnz	r3, .L9
 139              		.loc 1 22 99 discriminator 4 view .LVU34
 140 0048 627C     		ldrb	r2, [r4, #17]	@ zero_extendqisi2
 141              		.loc 1 22 86 discriminator 4 view .LVU35
 142 004a 22B1     		cbz	r2, .L8
 143              	.L9:
 144              		.loc 1 22 19 discriminator 5 view .LVU36
 145 004c 464A     		ldr	r2, .L27+8
 146 004e 9342     		cmp	r3, r2
 147 0050 2BD9     		bls	.L20
 148              		.loc 1 22 156 discriminator 8 view .LVU37
 149 0052 637C     		ldrb	r3, [r4, #17]	@ zero_extendqisi2
 150              		.loc 1 22 144 discriminator 8 view .LVU38
 151 0054 5BB3     		cbz	r3, .L21
 152              	.L8:
ARM GAS  /tmp/cclZJU8r.s 			page 4


 153              		.loc 1 22 177 discriminator 10 view .LVU39
 154 0056 94F83B30 		ldrb	r3, [r4, #59]	@ zero_extendqisi2
 155              		.loc 1 22 161 discriminator 10 view .LVU40
 156 005a 53BB     		cbnz	r3, .L22
 157              		.loc 1 22 161 view .LVU41
 158 005c 0122     		movs	r2, #1
 159              	.L10:
 160              		.loc 1 22 16 discriminator 14 view .LVU42
 161 005e 94F83930 		ldrb	r3, [r4, #57]	@ zero_extendqisi2
 162 0062 1340     		ands	r3, r3, r2
 163 0064 84F83930 		strb	r3, [r4, #57]
  23:Core/Src/cnc_core.c ****     
  24:Core/Src/cnc_core.c ****     HAL_GPIO_WritePin(dirX_Port, dirX_Pin, info->dir.x);
 164              		.loc 1 24 5 is_stmt 1 discriminator 14 view .LVU43
 165 0068 3D4D     		ldr	r5, .L27
 166 006a 227C     		ldrb	r2, [r4, #16]	@ zero_extendqisi2
 167 006c 4FF48071 		mov	r1, #256
 168 0070 2846     		mov	r0, r5
 169 0072 FFF7FEFF 		bl	HAL_GPIO_WritePin
 170              	.LVL9:
  25:Core/Src/cnc_core.c ****     HAL_GPIO_WritePin(dirY_Port, dirY_Pin, info->dir.y);
 171              		.loc 1 25 5 discriminator 14 view .LVU44
 172 0076 627C     		ldrb	r2, [r4, #17]	@ zero_extendqisi2
 173 0078 4FF40071 		mov	r1, #512
 174 007c 2846     		mov	r0, r5
 175 007e FFF7FEFF 		bl	HAL_GPIO_WritePin
 176              	.LVL10:
  26:Core/Src/cnc_core.c ****     
  27:Core/Src/cnc_core.c ****     bool run = (!(SWSTOP_GPIO_Port->IDR & SWSTOP_Pin) && (info->state == HMI_State_Run || info->mov
 177              		.loc 1 27 5 discriminator 14 view .LVU45
 178              		.loc 1 27 35 is_stmt 0 discriminator 14 view .LVU46
 179 0082 4FF09043 		mov	r3, #1207959552
 180 0086 1B69     		ldr	r3, [r3, #16]
 181              		.loc 1 27 55 discriminator 14 view .LVU47
 182 0088 13F0400F 		tst	r3, #64
 183 008c 13D1     		bne	.L23
 184              		.loc 1 27 63 discriminator 1 view .LVU48
 185 008e 6378     		ldrb	r3, [r4, #1]	@ zero_extendqisi2
 186              		.loc 1 27 55 discriminator 1 view .LVU49
 187 0090 022B     		cmp	r3, #2
 188 0092 31D0     		beq	.L24
 189              		.loc 1 27 95 discriminator 4 view .LVU50
 190 0094 A378     		ldrb	r3, [r4, #2]	@ zero_extendqisi2
 191              		.loc 1 27 88 discriminator 4 view .LVU51
 192 0096 012B     		cmp	r3, #1
 193 0098 30D0     		beq	.L25
 194              		.loc 1 27 55 view .LVU52
 195 009a 0023     		movs	r3, #0
 196 009c 0CE0     		b	.L11
 197              	.L17:
  21:Core/Src/cnc_core.c ****     info->runY &= !(HAL_GPIO_ReadPin(limitY_Port, limitY_Pin) || ((info->pos.y == 0) && !info->dir.
 198              		.loc 1 21 161 view .LVU53
 199 009e 0122     		movs	r2, #1
 200 00a0 C5E7     		b	.L7
 201              	.L18:
  21:Core/Src/cnc_core.c ****     info->runY &= !(HAL_GPIO_ReadPin(limitY_Port, limitY_Pin) || ((info->pos.y == 0) && !info->dir.
 202              		.loc 1 21 161 view .LVU54
ARM GAS  /tmp/cclZJU8r.s 			page 5


 203 00a2 0122     		movs	r2, #1
 204 00a4 C3E7     		b	.L7
 205              	.L19:
  21:Core/Src/cnc_core.c ****     info->runY &= !(HAL_GPIO_ReadPin(limitY_Port, limitY_Pin) || ((info->pos.y == 0) && !info->dir.
 206              		.loc 1 21 161 view .LVU55
 207 00a6 0022     		movs	r2, #0
 208 00a8 C1E7     		b	.L7
 209              	.L20:
  22:Core/Src/cnc_core.c ****     
 210              		.loc 1 22 161 view .LVU56
 211 00aa 0122     		movs	r2, #1
 212 00ac D7E7     		b	.L10
 213              	.L21:
  22:Core/Src/cnc_core.c ****     
 214              		.loc 1 22 161 view .LVU57
 215 00ae 0122     		movs	r2, #1
 216 00b0 D5E7     		b	.L10
 217              	.L22:
  22:Core/Src/cnc_core.c ****     
 218              		.loc 1 22 161 view .LVU58
 219 00b2 0022     		movs	r2, #0
 220 00b4 D3E7     		b	.L10
 221              	.L23:
 222              		.loc 1 27 55 view .LVU59
 223 00b6 0023     		movs	r3, #0
 224              	.L11:
 225              		.loc 1 27 10 discriminator 8 view .LVU60
 226 00b8 1946     		mov	r1, r3
 227              	.LVL11:
  28:Core/Src/cnc_core.c **** 
  29:Core/Src/cnc_core.c ****     info->runX &= run;
 228              		.loc 1 29 5 is_stmt 1 discriminator 8 view .LVU61
 229              		.loc 1 29 16 is_stmt 0 discriminator 8 view .LVU62
 230 00ba 94F83820 		ldrb	r2, [r4, #56]	@ zero_extendqisi2
 231 00be 1A40     		ands	r2, r2, r3
 232 00c0 84F83820 		strb	r2, [r4, #56]
  30:Core/Src/cnc_core.c ****     info->runY &= run;
 233              		.loc 1 30 5 is_stmt 1 discriminator 8 view .LVU63
 234              		.loc 1 30 16 is_stmt 0 discriminator 8 view .LVU64
 235 00c4 94F83900 		ldrb	r0, [r4, #57]	@ zero_extendqisi2
 236 00c8 0340     		ands	r3, r3, r0
 237              	.LVL12:
 238              		.loc 1 30 16 discriminator 8 view .LVU65
 239 00ca 84F83930 		strb	r3, [r4, #57]
  31:Core/Src/cnc_core.c **** 
  32:Core/Src/cnc_core.c ****     if(info->runX){
 240              		.loc 1 32 5 is_stmt 1 discriminator 8 view .LVU66
 241              		.loc 1 32 7 is_stmt 0 discriminator 8 view .LVU67
 242 00ce BAB1     		cbz	r2, .L12
  33:Core/Src/cnc_core.c ****         info->htimX->Instance->ARR = info->pulseLenght.x;
 243              		.loc 1 33 9 is_stmt 1 view .LVU68
 244              		.loc 1 33 13 is_stmt 0 view .LVU69
 245 00d0 236C     		ldr	r3, [r4, #64]
 246              		.loc 1 33 20 view .LVU70
 247 00d2 1B68     		ldr	r3, [r3]
 248              		.loc 1 33 55 view .LVU71
 249 00d4 A289     		ldrh	r2, [r4, #12]
ARM GAS  /tmp/cclZJU8r.s 			page 6


 250              		.loc 1 33 36 view .LVU72
 251 00d6 DA62     		str	r2, [r3, #44]
  34:Core/Src/cnc_core.c ****         info->htimX->Instance->CCR1 = ((info->pulseLenght.x)>>1);
 252              		.loc 1 34 9 is_stmt 1 view .LVU73
 253              		.loc 1 34 58 is_stmt 0 view .LVU74
 254 00d8 A389     		ldrh	r3, [r4, #12]
 255              		.loc 1 34 13 view .LVU75
 256 00da 226C     		ldr	r2, [r4, #64]
 257              		.loc 1 34 20 view .LVU76
 258 00dc 1268     		ldr	r2, [r2]
 259              		.loc 1 34 61 view .LVU77
 260 00de 5B08     		lsrs	r3, r3, #1
 261              		.loc 1 34 37 view .LVU78
 262 00e0 5363     		str	r3, [r2, #52]
  35:Core/Src/cnc_core.c ****         if(!(info->htimX->Instance->CR1 & TIM_CR1_CEN))
 263              		.loc 1 35 9 is_stmt 1 view .LVU79
 264              		.loc 1 35 18 is_stmt 0 view .LVU80
 265 00e2 236C     		ldr	r3, [r4, #64]
 266              		.loc 1 35 25 view .LVU81
 267 00e4 1B68     		ldr	r3, [r3]
 268              		.loc 1 35 35 view .LVU82
 269 00e6 1A68     		ldr	r2, [r3]
 270              		.loc 1 35 11 view .LVU83
 271 00e8 12F0010F 		tst	r2, #1
 272 00ec 0CD1     		bne	.L13
  36:Core/Src/cnc_core.c ****             info->htimX->Instance->CR1 |= TIM_CR1_ARPE | TIM_CR1_OPM | TIM_CR1_CEN;
 273              		.loc 1 36 13 is_stmt 1 view .LVU84
 274              		.loc 1 36 40 is_stmt 0 view .LVU85
 275 00ee 1A68     		ldr	r2, [r3]
 276 00f0 42F08902 		orr	r2, r2, #137
 277 00f4 1A60     		str	r2, [r3]
 278 00f6 07E0     		b	.L13
 279              	.L24:
  27:Core/Src/cnc_core.c **** 
 280              		.loc 1 27 55 view .LVU86
 281 00f8 0123     		movs	r3, #1
 282 00fa DDE7     		b	.L11
 283              	.L25:
 284 00fc 0123     		movs	r3, #1
 285 00fe DBE7     		b	.L11
 286              	.L12:
  37:Core/Src/cnc_core.c ****     }
  38:Core/Src/cnc_core.c ****     else{
  39:Core/Src/cnc_core.c ****     //    info->htimX->Instance->CR1 |= TIM_CR1_OPM;
  40:Core/Src/cnc_core.c ****         info->htimX->Instance->SR = 0x00000000U;
 287              		.loc 1 40 9 is_stmt 1 view .LVU87
 288              		.loc 1 40 13 is_stmt 0 view .LVU88
 289 0100 236C     		ldr	r3, [r4, #64]
 290              		.loc 1 40 20 view .LVU89
 291 0102 1B68     		ldr	r3, [r3]
 292              		.loc 1 40 35 view .LVU90
 293 0104 0022     		movs	r2, #0
 294 0106 1A61     		str	r2, [r3, #16]
 295              	.L13:
  41:Core/Src/cnc_core.c ****     }
  42:Core/Src/cnc_core.c **** 
  43:Core/Src/cnc_core.c ****     if(info->runY){
ARM GAS  /tmp/cclZJU8r.s 			page 7


 296              		.loc 1 43 5 is_stmt 1 view .LVU91
 297              		.loc 1 43 12 is_stmt 0 view .LVU92
 298 0108 94F83930 		ldrb	r3, [r4, #57]	@ zero_extendqisi2
 299              		.loc 1 43 7 view .LVU93
 300 010c 9BB1     		cbz	r3, .L14
  44:Core/Src/cnc_core.c ****         info->htimY->Instance->ARR = info->pulseLenght.y;
 301              		.loc 1 44 9 is_stmt 1 view .LVU94
 302              		.loc 1 44 13 is_stmt 0 view .LVU95
 303 010e 636C     		ldr	r3, [r4, #68]
 304              		.loc 1 44 20 view .LVU96
 305 0110 1B68     		ldr	r3, [r3]
 306              		.loc 1 44 55 view .LVU97
 307 0112 E289     		ldrh	r2, [r4, #14]
 308              		.loc 1 44 36 view .LVU98
 309 0114 DA62     		str	r2, [r3, #44]
  45:Core/Src/cnc_core.c ****         info->htimY->Instance->CCR3 = ((info->pulseLenght.y)>>1);
 310              		.loc 1 45 9 is_stmt 1 view .LVU99
 311              		.loc 1 45 58 is_stmt 0 view .LVU100
 312 0116 E389     		ldrh	r3, [r4, #14]
 313              		.loc 1 45 13 view .LVU101
 314 0118 626C     		ldr	r2, [r4, #68]
 315              		.loc 1 45 20 view .LVU102
 316 011a 1268     		ldr	r2, [r2]
 317              		.loc 1 45 61 view .LVU103
 318 011c 5B08     		lsrs	r3, r3, #1
 319              		.loc 1 45 37 view .LVU104
 320 011e D363     		str	r3, [r2, #60]
  46:Core/Src/cnc_core.c ****         if(!(info->htimY->Instance->CR1 & TIM_CR1_CEN))
 321              		.loc 1 46 9 is_stmt 1 view .LVU105
 322              		.loc 1 46 18 is_stmt 0 view .LVU106
 323 0120 636C     		ldr	r3, [r4, #68]
 324              		.loc 1 46 25 view .LVU107
 325 0122 1B68     		ldr	r3, [r3]
 326              		.loc 1 46 35 view .LVU108
 327 0124 1A68     		ldr	r2, [r3]
 328              		.loc 1 46 11 view .LVU109
 329 0126 12F0010F 		tst	r2, #1
 330 012a 08D1     		bne	.L15
  47:Core/Src/cnc_core.c ****             info->htimY->Instance->CR1 |= TIM_CR1_ARPE | TIM_CR1_OPM | TIM_CR1_CEN; 
 331              		.loc 1 47 13 is_stmt 1 view .LVU110
 332              		.loc 1 47 40 is_stmt 0 view .LVU111
 333 012c 1A68     		ldr	r2, [r3]
 334 012e 42F08902 		orr	r2, r2, #137
 335 0132 1A60     		str	r2, [r3]
 336 0134 03E0     		b	.L15
 337              	.L14:
  48:Core/Src/cnc_core.c ****     }
  49:Core/Src/cnc_core.c ****     else{
  50:Core/Src/cnc_core.c ****     //    info->htimY->Instance->CR1 |= TIM_CR1_OPM;
  51:Core/Src/cnc_core.c ****         info->htimY->Instance->SR = 0x00000000U;          
 338              		.loc 1 51 9 is_stmt 1 view .LVU112
 339              		.loc 1 51 13 is_stmt 0 view .LVU113
 340 0136 636C     		ldr	r3, [r4, #68]
 341              		.loc 1 51 20 view .LVU114
 342 0138 1B68     		ldr	r3, [r3]
 343              		.loc 1 51 35 view .LVU115
 344 013a 0022     		movs	r2, #0
ARM GAS  /tmp/cclZJU8r.s 			page 8


 345 013c 1A61     		str	r2, [r3, #16]
 346              	.L15:
  52:Core/Src/cnc_core.c ****     }
  53:Core/Src/cnc_core.c **** 
  54:Core/Src/cnc_core.c ****     if(!run){
 347              		.loc 1 54 5 is_stmt 1 view .LVU116
 348              		.loc 1 54 7 is_stmt 0 view .LVU117
 349 013e 69B9     		cbnz	r1, .L4
  55:Core/Src/cnc_core.c ****         info->state = HMI_State_Stop;
 350              		.loc 1 55 9 is_stmt 1 view .LVU118
 351              		.loc 1 55 21 is_stmt 0 view .LVU119
 352 0140 0023     		movs	r3, #0
 353 0142 6370     		strb	r3, [r4, #1]
  56:Core/Src/cnc_core.c ****         info->htimX->Instance->CR1 |= TIM_CR1_OPM;
 354              		.loc 1 56 9 is_stmt 1 view .LVU120
 355              		.loc 1 56 13 is_stmt 0 view .LVU121
 356 0144 236C     		ldr	r3, [r4, #64]
 357              		.loc 1 56 20 view .LVU122
 358 0146 1A68     		ldr	r2, [r3]
 359              		.loc 1 56 36 view .LVU123
 360 0148 1368     		ldr	r3, [r2]
 361 014a 43F00803 		orr	r3, r3, #8
 362 014e 1360     		str	r3, [r2]
  57:Core/Src/cnc_core.c ****         info->htimY->Instance->CR1 |= TIM_CR1_OPM;
 363              		.loc 1 57 9 is_stmt 1 view .LVU124
 364              		.loc 1 57 13 is_stmt 0 view .LVU125
 365 0150 636C     		ldr	r3, [r4, #68]
 366              		.loc 1 57 20 view .LVU126
 367 0152 1A68     		ldr	r2, [r3]
 368              		.loc 1 57 36 view .LVU127
 369 0154 1368     		ldr	r3, [r2]
 370 0156 43F00803 		orr	r3, r3, #8
 371 015a 1360     		str	r3, [r2]
 372              	.L4:
  58:Core/Src/cnc_core.c ****     }
  59:Core/Src/cnc_core.c **** }
 373              		.loc 1 59 1 view .LVU128
 374 015c 38BD     		pop	{r3, r4, r5, pc}
 375              	.LVL13:
 376              	.L28:
 377              		.loc 1 59 1 view .LVU129
 378 015e 00BF     		.align	2
 379              	.L27:
 380 0160 000C0048 		.word	1207962624
 381 0164 7F600100 		.word	90239
 382 0168 FFE10400 		.word	319999
 383              		.cfi_endproc
 384              	.LFE289:
 386              		.section	.text.CNC_Absolute,"ax",%progbits
 387              		.align	1
 388              		.global	CNC_Absolute
 389              		.syntax unified
 390              		.thumb
 391              		.thumb_func
 393              	CNC_Absolute:
 394              	.LVL14:
 395              	.LFB290:
ARM GAS  /tmp/cclZJU8r.s 			page 9


  60:Core/Src/cnc_core.c **** 
  61:Core/Src/cnc_core.c **** void CNC_Absolute(HMI_info_t* const info){
 396              		.loc 1 61 42 is_stmt 1 view -0
 397              		.cfi_startproc
 398              		@ args = 0, pretend = 0, frame = 0
 399              		@ frame_needed = 0, uses_anonymous_args = 0
 400              		.loc 1 61 42 is_stmt 0 view .LVU131
 401 0000 70B5     		push	{r4, r5, r6, lr}
 402              		.cfi_def_cfa_offset 16
 403              		.cfi_offset 4, -16
 404              		.cfi_offset 5, -12
 405              		.cfi_offset 6, -8
 406              		.cfi_offset 14, -4
 407 0002 0446     		mov	r4, r0
  62:Core/Src/cnc_core.c **** 
  63:Core/Src/cnc_core.c ****     info->dir.x = (info->pos.x < info->commanded.pos.x);
 408              		.loc 1 63 5 is_stmt 1 view .LVU132
 409              		.loc 1 63 29 is_stmt 0 view .LVU133
 410 0004 4568     		ldr	r5, [r0, #4]
 411              		.loc 1 63 53 view .LVU134
 412 0006 4169     		ldr	r1, [r0, #20]
 413              		.loc 1 63 32 view .LVU135
 414 0008 8D42     		cmp	r5, r1
 415 000a 2CBF     		ite	cs
 416 000c 0020     		movcs	r0, #0
 417              	.LVL15:
 418              		.loc 1 63 32 view .LVU136
 419 000e 0120     		movcc	r0, #1
 420              		.loc 1 63 17 view .LVU137
 421 0010 2074     		strb	r0, [r4, #16]
  64:Core/Src/cnc_core.c ****     info->dir.y = (info->pos.y < info->commanded.pos.y);
 422              		.loc 1 64 5 is_stmt 1 view .LVU138
 423              		.loc 1 64 29 is_stmt 0 view .LVU139
 424 0012 A668     		ldr	r6, [r4, #8]
 425              		.loc 1 64 53 view .LVU140
 426 0014 A369     		ldr	r3, [r4, #24]
 427              		.loc 1 64 32 view .LVU141
 428 0016 9E42     		cmp	r6, r3
 429 0018 2CBF     		ite	cs
 430 001a 0022     		movcs	r2, #0
 431 001c 0122     		movcc	r2, #1
 432              		.loc 1 64 17 view .LVU142
 433 001e 6274     		strb	r2, [r4, #17]
  65:Core/Src/cnc_core.c **** 
  66:Core/Src/cnc_core.c ****     uint32_t dX = info->dir.x ? (info->commanded.pos.x - info->pos.x) : (info->pos.x - info->comman
 434              		.loc 1 66 5 is_stmt 1 view .LVU143
 435              		.loc 1 66 71 is_stmt 0 view .LVU144
 436 0020 0028     		cmp	r0, #0
 437 0022 41D0     		beq	.L30
 438              		.loc 1 66 71 discriminator 1 view .LVU145
 439 0024 4D1B     		subs	r5, r1, r5
 440              	.L31:
 441              	.LVL16:
  67:Core/Src/cnc_core.c ****     uint32_t dY = info->dir.y ? (info->commanded.pos.y - info->pos.y) : (info->pos.y - info->comman
 442              		.loc 1 67 5 is_stmt 1 discriminator 4 view .LVU146
 443              		.loc 1 67 71 is_stmt 0 discriminator 4 view .LVU147
 444 0026 002A     		cmp	r2, #0
ARM GAS  /tmp/cclZJU8r.s 			page 10


 445 0028 40D0     		beq	.L32
 446              		.loc 1 67 71 discriminator 1 view .LVU148
 447 002a 9E1B     		subs	r6, r3, r6
 448              	.L33:
 449              	.LVL17:
  68:Core/Src/cnc_core.c **** 
  69:Core/Src/cnc_core.c ****     info->runX = dX > 0;
 450              		.loc 1 69 5 is_stmt 1 discriminator 4 view .LVU149
 451              		.loc 1 69 21 is_stmt 0 discriminator 4 view .LVU150
 452 002c 2B1E     		subs	r3, r5, #0
 453 002e 18BF     		it	ne
 454 0030 0123     		movne	r3, #1
 455              		.loc 1 69 16 discriminator 4 view .LVU151
 456 0032 84F83830 		strb	r3, [r4, #56]
  70:Core/Src/cnc_core.c ****     info->runY = dY > 0;
 457              		.loc 1 70 5 is_stmt 1 discriminator 4 view .LVU152
 458              		.loc 1 70 21 is_stmt 0 discriminator 4 view .LVU153
 459 0036 331E     		subs	r3, r6, #0
 460 0038 18BF     		it	ne
 461 003a 0123     		movne	r3, #1
 462              		.loc 1 70 16 discriminator 4 view .LVU154
 463 003c 84F83930 		strb	r3, [r4, #57]
  71:Core/Src/cnc_core.c **** 
  72:Core/Src/cnc_core.c ****     //sistema questa parte dai...
  73:Core/Src/cnc_core.c ****     uint32_t den;
 464              		.loc 1 73 5 is_stmt 1 discriminator 4 view .LVU155
  74:Core/Src/cnc_core.c ****     uint32_t range = (dX > dY) ? dX : dY;
 465              		.loc 1 74 5 discriminator 4 view .LVU156
 466              		.loc 1 74 14 is_stmt 0 discriminator 4 view .LVU157
 467 0040 2B46     		mov	r3, r5
 468 0042 B542     		cmp	r5, r6
 469 0044 38BF     		it	cc
 470 0046 3346     		movcc	r3, r6
 471              	.LVL18:
  75:Core/Src/cnc_core.c **** 
  76:Core/Src/cnc_core.c ****     if(range > (1<<16)-1){
 472              		.loc 1 76 5 is_stmt 1 discriminator 4 view .LVU158
 473              		.loc 1 76 7 is_stmt 0 discriminator 4 view .LVU159
 474 0048 B3F5803F 		cmp	r3, #65536
 475 004c 01D3     		bcc	.L34
  77:Core/Src/cnc_core.c ****        dX <<= 4;
 476              		.loc 1 77 8 is_stmt 1 view .LVU160
 477              		.loc 1 77 11 is_stmt 0 view .LVU161
 478 004e 2D01     		lsls	r5, r5, #4
 479              	.LVL19:
  78:Core/Src/cnc_core.c ****        dY <<= 4; 
 480              		.loc 1 78 8 is_stmt 1 view .LVU162
 481              		.loc 1 78 11 is_stmt 0 view .LVU163
 482 0050 3601     		lsls	r6, r6, #4
 483              	.LVL20:
 484              	.L34:
  79:Core/Src/cnc_core.c ****     }
  80:Core/Src/cnc_core.c **** 
  81:Core/Src/cnc_core.c ****     if(range < (1<<8))
 485              		.loc 1 81 5 is_stmt 1 view .LVU164
 486              		.loc 1 81 7 is_stmt 0 view .LVU165
 487 0052 FF2B     		cmp	r3, #255
ARM GAS  /tmp/cclZJU8r.s 			page 11


 488 0054 2CD8     		bhi	.L35
  82:Core/Src/cnc_core.c ****         den = ihyp(dX<<7, dY<<7) * ((freqX_1mm_min>>7)/info->feed);
 489              		.loc 1 82 9 is_stmt 1 view .LVU166
 490              		.loc 1 82 15 is_stmt 0 view .LVU167
 491 0056 F101     		lsls	r1, r6, #7
 492 0058 E801     		lsls	r0, r5, #7
 493 005a FFF7FEFF 		bl	ihyp
 494              	.LVL21:
 495              		.loc 1 82 60 view .LVU168
 496 005e E269     		ldr	r2, [r4, #28]
 497              		.loc 1 82 55 view .LVU169
 498 0060 40F2FF13 		movw	r3, #511
 499 0064 B3FBF2F3 		udiv	r3, r3, r2
 500              		.loc 1 82 13 view .LVU170
 501 0068 03FB00F0 		mul	r0, r3, r0
 502              	.LVL22:
 503              	.L36:
  83:Core/Src/cnc_core.c ****     else
  84:Core/Src/cnc_core.c ****         den = ihyp(dX, dY) * (freqX_1mm_min/info->feed);
  85:Core/Src/cnc_core.c **** 
  86:Core/Src/cnc_core.c ****     
  87:Core/Src/cnc_core.c ****     info->pulseLenght.x = (uint16_t) (den/dX);
 504              		.loc 1 87 5 is_stmt 1 view .LVU171
 505              		.loc 1 87 42 is_stmt 0 view .LVU172
 506 006c B0FBF5F5 		udiv	r5, r0, r5
 507              	.LVL23:
 508              		.loc 1 87 27 view .LVU173
 509 0070 ADB2     		uxth	r5, r5
 510              		.loc 1 87 25 view .LVU174
 511 0072 A581     		strh	r5, [r4, #12]	@ movhi
  88:Core/Src/cnc_core.c ****     info->pulseLenght.y = (uint16_t) (den/dY);
 512              		.loc 1 88 5 is_stmt 1 view .LVU175
 513              		.loc 1 88 42 is_stmt 0 view .LVU176
 514 0074 B0FBF6F0 		udiv	r0, r0, r6
 515              	.LVL24:
 516              		.loc 1 88 27 view .LVU177
 517 0078 80B2     		uxth	r0, r0
 518              		.loc 1 88 25 view .LVU178
 519 007a E081     		strh	r0, [r4, #14]	@ movhi
  89:Core/Src/cnc_core.c **** 
  90:Core/Src/cnc_core.c ****     //da sistemare
  91:Core/Src/cnc_core.c ****     if(info->pulseLenght.x < 10) info->pulseLenght.x = 1000;
 520              		.loc 1 91 5 is_stmt 1 view .LVU179
 521              		.loc 1 91 7 is_stmt 0 view .LVU180
 522 007c 092D     		cmp	r5, #9
 523 007e 02D8     		bhi	.L37
 524              		.loc 1 91 34 is_stmt 1 discriminator 1 view .LVU181
 525              		.loc 1 91 54 is_stmt 0 discriminator 1 view .LVU182
 526 0080 4FF47A73 		mov	r3, #1000
 527 0084 A381     		strh	r3, [r4, #12]	@ movhi
 528              	.L37:
  92:Core/Src/cnc_core.c ****     if(info->pulseLenght.y < 10) info->pulseLenght.y = 1000;
 529              		.loc 1 92 5 is_stmt 1 view .LVU183
 530              		.loc 1 92 7 is_stmt 0 view .LVU184
 531 0086 0928     		cmp	r0, #9
 532 0088 02D8     		bhi	.L38
 533              		.loc 1 92 34 is_stmt 1 discriminator 1 view .LVU185
ARM GAS  /tmp/cclZJU8r.s 			page 12


 534              		.loc 1 92 54 is_stmt 0 discriminator 1 view .LVU186
 535 008a 4FF47A73 		mov	r3, #1000
 536 008e E381     		strh	r3, [r4, #14]	@ movhi
 537              	.L38:
  93:Core/Src/cnc_core.c **** 
  94:Core/Src/cnc_core.c ****     CNC_Stepper(info);    
 538              		.loc 1 94 5 is_stmt 1 view .LVU187
 539 0090 2046     		mov	r0, r4
 540 0092 FFF7FEFF 		bl	CNC_Stepper
 541              	.LVL25:
  95:Core/Src/cnc_core.c **** 
  96:Core/Src/cnc_core.c ****     if(!info->runX && !info->runY)
 542              		.loc 1 96 5 view .LVU188
 543              		.loc 1 96 13 is_stmt 0 view .LVU189
 544 0096 94F83830 		ldrb	r3, [r4, #56]	@ zero_extendqisi2
 545              		.loc 1 96 7 view .LVU190
 546 009a 23B9     		cbnz	r3, .L29
 547              		.loc 1 96 28 discriminator 1 view .LVU191
 548 009c 94F83930 		ldrb	r3, [r4, #57]	@ zero_extendqisi2
 549              		.loc 1 96 20 discriminator 1 view .LVU192
 550 00a0 0BB9     		cbnz	r3, .L29
  97:Core/Src/cnc_core.c ****         info->move = HMI_Move_Done; 
 551              		.loc 1 97 9 is_stmt 1 view .LVU193
 552              		.loc 1 97 20 is_stmt 0 view .LVU194
 553 00a2 0323     		movs	r3, #3
 554 00a4 A370     		strb	r3, [r4, #2]
 555              	.L29:
  98:Core/Src/cnc_core.c **** }
 556              		.loc 1 98 1 view .LVU195
 557 00a6 70BD     		pop	{r4, r5, r6, pc}
 558              	.LVL26:
 559              	.L30:
  66:Core/Src/cnc_core.c ****     uint32_t dY = info->dir.y ? (info->commanded.pos.y - info->pos.y) : (info->pos.y - info->comman
 560              		.loc 1 66 71 discriminator 2 view .LVU196
 561 00a8 6D1A     		subs	r5, r5, r1
 562 00aa BCE7     		b	.L31
 563              	.LVL27:
 564              	.L32:
  67:Core/Src/cnc_core.c **** 
 565              		.loc 1 67 71 discriminator 2 view .LVU197
 566 00ac F61A     		subs	r6, r6, r3
 567 00ae BDE7     		b	.L33
 568              	.LVL28:
 569              	.L35:
  84:Core/Src/cnc_core.c **** 
 570              		.loc 1 84 9 is_stmt 1 view .LVU198
  84:Core/Src/cnc_core.c **** 
 571              		.loc 1 84 15 is_stmt 0 view .LVU199
 572 00b0 3146     		mov	r1, r6
 573 00b2 2846     		mov	r0, r5
 574 00b4 FFF7FEFF 		bl	ihyp
 575              	.LVL29:
  84:Core/Src/cnc_core.c **** 
 576              		.loc 1 84 49 view .LVU200
 577 00b8 E269     		ldr	r2, [r4, #28]
  84:Core/Src/cnc_core.c **** 
 578              		.loc 1 84 44 view .LVU201
ARM GAS  /tmp/cclZJU8r.s 			page 13


 579 00ba 4FF6EA73 		movw	r3, #65514
 580 00be B3FBF2F3 		udiv	r3, r3, r2
  84:Core/Src/cnc_core.c **** 
 581              		.loc 1 84 13 view .LVU202
 582 00c2 03FB00F0 		mul	r0, r3, r0
 583              	.LVL30:
  84:Core/Src/cnc_core.c **** 
 584              		.loc 1 84 13 view .LVU203
 585 00c6 D1E7     		b	.L36
 586              		.cfi_endproc
 587              	.LFE290:
 589              		.section	.text.CNC_AbsoluteX,"ax",%progbits
 590              		.align	1
 591              		.global	CNC_AbsoluteX
 592              		.syntax unified
 593              		.thumb
 594              		.thumb_func
 596              	CNC_AbsoluteX:
 597              	.LVL31:
 598              	.LFB291:
  99:Core/Src/cnc_core.c **** 
 100:Core/Src/cnc_core.c **** bool CNC_AbsoluteX(HMI_info_t* const info){
 599              		.loc 1 100 43 is_stmt 1 view -0
 600              		.cfi_startproc
 601              		@ args = 0, pretend = 0, frame = 0
 602              		@ frame_needed = 0, uses_anonymous_args = 0
 603              		.loc 1 100 43 is_stmt 0 view .LVU205
 604 0000 10B5     		push	{r4, lr}
 605              		.cfi_def_cfa_offset 8
 606              		.cfi_offset 4, -8
 607              		.cfi_offset 14, -4
 608 0002 0446     		mov	r4, r0
 101:Core/Src/cnc_core.c ****     info->dir.x = (info->pos.x < info->commanded.pos.x);
 609              		.loc 1 101 5 is_stmt 1 view .LVU206
 610              		.loc 1 101 29 is_stmt 0 view .LVU207
 611 0004 4368     		ldr	r3, [r0, #4]
 612              		.loc 1 101 53 view .LVU208
 613 0006 4269     		ldr	r2, [r0, #20]
 614              		.loc 1 101 32 view .LVU209
 615 0008 9342     		cmp	r3, r2
 616 000a 2CBF     		ite	cs
 617 000c 0021     		movcs	r1, #0
 618 000e 0121     		movcc	r1, #1
 619              		.loc 1 101 17 view .LVU210
 620 0010 0174     		strb	r1, [r0, #16]
 102:Core/Src/cnc_core.c ****     uint32_t dX = info->dir.x ? (info->commanded.pos.x - info->pos.x) : (info->pos.x - info->comman
 621              		.loc 1 102 5 is_stmt 1 view .LVU211
 622              		.loc 1 102 71 is_stmt 0 view .LVU212
 623 0012 B1B1     		cbz	r1, .L42
 624              		.loc 1 102 71 discriminator 1 view .LVU213
 625 0014 D31A     		subs	r3, r2, r3
 626              	.L43:
 627              	.LVL32:
 103:Core/Src/cnc_core.c ****     
 104:Core/Src/cnc_core.c ****     info->runX = dX > 0;
 628              		.loc 1 104 5 is_stmt 1 discriminator 4 view .LVU214
 629              		.loc 1 104 21 is_stmt 0 discriminator 4 view .LVU215
ARM GAS  /tmp/cclZJU8r.s 			page 14


 630 0016 003B     		subs	r3, r3, #0
 631              		.loc 1 104 21 discriminator 4 view .LVU216
 632 0018 18BF     		it	ne
 633 001a 0123     		movne	r3, #1
 634              	.LVL33:
 635              		.loc 1 104 16 discriminator 4 view .LVU217
 636 001c 84F83830 		strb	r3, [r4, #56]
 105:Core/Src/cnc_core.c ****     info->runY = false;
 637              		.loc 1 105 5 is_stmt 1 discriminator 4 view .LVU218
 638              		.loc 1 105 16 is_stmt 0 discriminator 4 view .LVU219
 639 0020 0023     		movs	r3, #0
 640 0022 84F83930 		strb	r3, [r4, #57]
 106:Core/Src/cnc_core.c **** 
 107:Core/Src/cnc_core.c ****     info->pulseLenght.x = (uint16_t) (freqX_1mm_min / info->feed);
 641              		.loc 1 107 5 is_stmt 1 discriminator 4 view .LVU220
 642              		.loc 1 107 59 is_stmt 0 discriminator 4 view .LVU221
 643 0026 E269     		ldr	r2, [r4, #28]
 644              		.loc 1 107 27 discriminator 4 view .LVU222
 645 0028 4FF6EA73 		movw	r3, #65514
 646 002c B3FBF2F3 		udiv	r3, r3, r2
 647              		.loc 1 107 25 discriminator 4 view .LVU223
 648 0030 A381     		strh	r3, [r4, #12]	@ movhi
 108:Core/Src/cnc_core.c **** 
 109:Core/Src/cnc_core.c ****     CNC_Stepper(info);    
 649              		.loc 1 109 5 is_stmt 1 discriminator 4 view .LVU224
 650 0032 2046     		mov	r0, r4
 651              	.LVL34:
 652              		.loc 1 109 5 is_stmt 0 discriminator 4 view .LVU225
 653 0034 FFF7FEFF 		bl	CNC_Stepper
 654              	.LVL35:
 110:Core/Src/cnc_core.c **** 
 111:Core/Src/cnc_core.c ****     return !info->runX;
 655              		.loc 1 111 5 is_stmt 1 discriminator 4 view .LVU226
 656              		.loc 1 111 17 is_stmt 0 discriminator 4 view .LVU227
 657 0038 94F83800 		ldrb	r0, [r4, #56]	@ zero_extendqisi2
 112:Core/Src/cnc_core.c **** }
 658              		.loc 1 112 1 discriminator 4 view .LVU228
 659 003c 80F00100 		eor	r0, r0, #1
 660 0040 10BD     		pop	{r4, pc}
 661              	.LVL36:
 662              	.L42:
 102:Core/Src/cnc_core.c ****     
 663              		.loc 1 102 71 discriminator 2 view .LVU229
 664 0042 9B1A     		subs	r3, r3, r2
 665 0044 E7E7     		b	.L43
 666              		.cfi_endproc
 667              	.LFE291:
 669              		.section	.text.CNC_AbsoluteY,"ax",%progbits
 670              		.align	1
 671              		.global	CNC_AbsoluteY
 672              		.syntax unified
 673              		.thumb
 674              		.thumb_func
 676              	CNC_AbsoluteY:
 677              	.LVL37:
 678              	.LFB292:
 113:Core/Src/cnc_core.c **** 
ARM GAS  /tmp/cclZJU8r.s 			page 15


 114:Core/Src/cnc_core.c **** bool CNC_AbsoluteY(HMI_info_t* const info){
 679              		.loc 1 114 43 is_stmt 1 view -0
 680              		.cfi_startproc
 681              		@ args = 0, pretend = 0, frame = 0
 682              		@ frame_needed = 0, uses_anonymous_args = 0
 683              		.loc 1 114 43 is_stmt 0 view .LVU231
 684 0000 10B5     		push	{r4, lr}
 685              		.cfi_def_cfa_offset 8
 686              		.cfi_offset 4, -8
 687              		.cfi_offset 14, -4
 688 0002 0446     		mov	r4, r0
 115:Core/Src/cnc_core.c ****     info->dir.y = (info->pos.y < info->commanded.pos.y);
 689              		.loc 1 115 5 is_stmt 1 view .LVU232
 690              		.loc 1 115 29 is_stmt 0 view .LVU233
 691 0004 8368     		ldr	r3, [r0, #8]
 692              		.loc 1 115 53 view .LVU234
 693 0006 8269     		ldr	r2, [r0, #24]
 694              		.loc 1 115 32 view .LVU235
 695 0008 9342     		cmp	r3, r2
 696 000a 2CBF     		ite	cs
 697 000c 0021     		movcs	r1, #0
 698 000e 0121     		movcc	r1, #1
 699              		.loc 1 115 17 view .LVU236
 700 0010 4174     		strb	r1, [r0, #17]
 116:Core/Src/cnc_core.c ****     uint32_t dY = info->dir.y ? (info->commanded.pos.y - info->pos.y) : (info->pos.y - info->comman
 701              		.loc 1 116 5 is_stmt 1 view .LVU237
 702              		.loc 1 116 71 is_stmt 0 view .LVU238
 703 0012 B1B1     		cbz	r1, .L46
 704              		.loc 1 116 71 discriminator 1 view .LVU239
 705 0014 D31A     		subs	r3, r2, r3
 706              	.L47:
 707              	.LVL38:
 117:Core/Src/cnc_core.c ****     
 118:Core/Src/cnc_core.c ****     info->runX = false;
 708              		.loc 1 118 5 is_stmt 1 discriminator 4 view .LVU240
 709              		.loc 1 118 16 is_stmt 0 discriminator 4 view .LVU241
 710 0016 0022     		movs	r2, #0
 711 0018 84F83820 		strb	r2, [r4, #56]
 119:Core/Src/cnc_core.c ****     info->runY = dY > 0;
 712              		.loc 1 119 5 is_stmt 1 discriminator 4 view .LVU242
 713              		.loc 1 119 21 is_stmt 0 discriminator 4 view .LVU243
 714 001c 9B1A     		subs	r3, r3, r2
 715              		.loc 1 119 21 discriminator 4 view .LVU244
 716 001e 18BF     		it	ne
 717 0020 0123     		movne	r3, #1
 718              	.LVL39:
 719              		.loc 1 119 16 discriminator 4 view .LVU245
 720 0022 84F83930 		strb	r3, [r4, #57]
 120:Core/Src/cnc_core.c **** 
 121:Core/Src/cnc_core.c ****     info->pulseLenght.y = (uint16_t) (freqY_1mm_min / info->feed);
 721              		.loc 1 121 5 is_stmt 1 discriminator 4 view .LVU246
 722              		.loc 1 121 59 is_stmt 0 discriminator 4 view .LVU247
 723 0026 E269     		ldr	r2, [r4, #28]
 724              		.loc 1 121 27 discriminator 4 view .LVU248
 725 0028 4FF6EA73 		movw	r3, #65514
 726 002c B3FBF2F3 		udiv	r3, r3, r2
 727              		.loc 1 121 25 discriminator 4 view .LVU249
ARM GAS  /tmp/cclZJU8r.s 			page 16


 728 0030 E381     		strh	r3, [r4, #14]	@ movhi
 122:Core/Src/cnc_core.c **** 
 123:Core/Src/cnc_core.c ****     CNC_Stepper(info);    
 729              		.loc 1 123 5 is_stmt 1 discriminator 4 view .LVU250
 730 0032 2046     		mov	r0, r4
 731              	.LVL40:
 732              		.loc 1 123 5 is_stmt 0 discriminator 4 view .LVU251
 733 0034 FFF7FEFF 		bl	CNC_Stepper
 734              	.LVL41:
 124:Core/Src/cnc_core.c **** 
 125:Core/Src/cnc_core.c ****     return !info->runY;
 735              		.loc 1 125 5 is_stmt 1 discriminator 4 view .LVU252
 736              		.loc 1 125 17 is_stmt 0 discriminator 4 view .LVU253
 737 0038 94F83900 		ldrb	r0, [r4, #57]	@ zero_extendqisi2
 126:Core/Src/cnc_core.c **** }
 738              		.loc 1 126 1 discriminator 4 view .LVU254
 739 003c 80F00100 		eor	r0, r0, #1
 740 0040 10BD     		pop	{r4, pc}
 741              	.LVL42:
 742              	.L46:
 116:Core/Src/cnc_core.c ****     
 743              		.loc 1 116 71 discriminator 2 view .LVU255
 744 0042 9B1A     		subs	r3, r3, r2
 745 0044 E7E7     		b	.L47
 746              		.cfi_endproc
 747              	.LFE292:
 749              		.section	.text.CNC_Jog,"ax",%progbits
 750              		.align	1
 751              		.global	CNC_Jog
 752              		.syntax unified
 753              		.thumb
 754              		.thumb_func
 756              	CNC_Jog:
 757              	.LVL43:
 758              	.LFB293:
 127:Core/Src/cnc_core.c **** 
 128:Core/Src/cnc_core.c **** void CNC_Jog(HMI_info_t* const info){
 759              		.loc 1 128 37 is_stmt 1 view -0
 760              		.cfi_startproc
 761              		@ args = 0, pretend = 0, frame = 0
 762              		@ frame_needed = 0, uses_anonymous_args = 0
 763              		.loc 1 128 37 is_stmt 0 view .LVU257
 764 0000 08B5     		push	{r3, lr}
 765              		.cfi_def_cfa_offset 8
 766              		.cfi_offset 3, -8
 767              		.cfi_offset 14, -4
 129:Core/Src/cnc_core.c **** 
 130:Core/Src/cnc_core.c ****     info->dir.x = (info->commanded.speed.x >= 0);
 768              		.loc 1 130 5 is_stmt 1 view .LVU258
 769              		.loc 1 130 41 is_stmt 0 view .LVU259
 770 0002 4269     		ldr	r2, [r0, #20]
 771              		.loc 1 130 44 view .LVU260
 772 0004 D343     		mvns	r3, r2
 773 0006 DB0F     		lsrs	r3, r3, #31
 774              		.loc 1 130 17 view .LVU261
 775 0008 0374     		strb	r3, [r0, #16]
 131:Core/Src/cnc_core.c ****     info->dir.y = (info->commanded.speed.y >= 0);
ARM GAS  /tmp/cclZJU8r.s 			page 17


 776              		.loc 1 131 5 is_stmt 1 view .LVU262
 777              		.loc 1 131 41 is_stmt 0 view .LVU263
 778 000a 8369     		ldr	r3, [r0, #24]
 779              		.loc 1 131 44 view .LVU264
 780 000c D943     		mvns	r1, r3
 781 000e C90F     		lsrs	r1, r1, #31
 782              		.loc 1 131 17 view .LVU265
 783 0010 4174     		strb	r1, [r0, #17]
 132:Core/Src/cnc_core.c **** 
 133:Core/Src/cnc_core.c ****     if(info->commanded.speed.x != 0)
 784              		.loc 1 133 5 is_stmt 1 view .LVU266
 785              		.loc 1 133 7 is_stmt 0 view .LVU267
 786 0012 FAB1     		cbz	r2, .L50
 134:Core/Src/cnc_core.c ****         info->pulseLenght.x = (uint16_t) (freqX_1mm_min) / abs(info->commanded.speed.x);
 787              		.loc 1 134 9 is_stmt 1 view .LVU268
 788              		.loc 1 134 60 is_stmt 0 view .LVU269
 789 0014 82EAE27C 		eor	ip, r2, r2, asr #31
 790 0018 ACEBE27C 		sub	ip, ip, r2, asr #31
 791              		.loc 1 134 58 view .LVU270
 792 001c 4FF6EA71 		movw	r1, #65514
 793 0020 91FBFCF1 		sdiv	r1, r1, ip
 794              		.loc 1 134 29 view .LVU271
 795 0024 8181     		strh	r1, [r0, #12]	@ movhi
 796              	.L51:
 135:Core/Src/cnc_core.c ****     else
 136:Core/Src/cnc_core.c ****         info->pulseLenght.x = 200;
 137:Core/Src/cnc_core.c **** 
 138:Core/Src/cnc_core.c ****     if(info->commanded.speed.y != 0)
 797              		.loc 1 138 5 is_stmt 1 view .LVU272
 798              		.loc 1 138 7 is_stmt 0 view .LVU273
 799 0026 C3B1     		cbz	r3, .L52
 139:Core/Src/cnc_core.c ****         info->pulseLenght.y = (uint16_t) (freqY_1mm_min) / abs(info->commanded.speed.y);
 800              		.loc 1 139 9 is_stmt 1 view .LVU274
 801              		.loc 1 139 60 is_stmt 0 view .LVU275
 802 0028 83EAE37C 		eor	ip, r3, r3, asr #31
 803 002c ACEBE37C 		sub	ip, ip, r3, asr #31
 804              		.loc 1 139 58 view .LVU276
 805 0030 4FF6EA71 		movw	r1, #65514
 806 0034 91FBFCF1 		sdiv	r1, r1, ip
 807              		.loc 1 139 29 view .LVU277
 808 0038 C181     		strh	r1, [r0, #14]	@ movhi
 809              	.L53:
 140:Core/Src/cnc_core.c ****     else
 141:Core/Src/cnc_core.c ****         info->pulseLenght.y = 200;
 142:Core/Src/cnc_core.c **** 
 143:Core/Src/cnc_core.c ****     info->runX = info->commanded.speed.x != 0;
 810              		.loc 1 143 5 is_stmt 1 view .LVU278
 811              		.loc 1 143 42 is_stmt 0 view .LVU279
 812 003a 003A     		subs	r2, r2, #0
 813 003c 18BF     		it	ne
 814 003e 0122     		movne	r2, #1
 815              		.loc 1 143 16 view .LVU280
 816 0040 80F83820 		strb	r2, [r0, #56]
 144:Core/Src/cnc_core.c ****     info->runY = info->commanded.speed.y != 0;
 817              		.loc 1 144 5 is_stmt 1 view .LVU281
 818              		.loc 1 144 42 is_stmt 0 view .LVU282
 819 0044 003B     		subs	r3, r3, #0
ARM GAS  /tmp/cclZJU8r.s 			page 18


 820 0046 18BF     		it	ne
 821 0048 0123     		movne	r3, #1
 822              		.loc 1 144 16 view .LVU283
 823 004a 80F83930 		strb	r3, [r0, #57]
 145:Core/Src/cnc_core.c **** 
 146:Core/Src/cnc_core.c ****     CNC_Stepper(info); 
 824              		.loc 1 146 5 is_stmt 1 view .LVU284
 825 004e FFF7FEFF 		bl	CNC_Stepper
 826              	.LVL44:
 147:Core/Src/cnc_core.c **** }
 827              		.loc 1 147 1 is_stmt 0 view .LVU285
 828 0052 08BD     		pop	{r3, pc}
 829              	.LVL45:
 830              	.L50:
 136:Core/Src/cnc_core.c **** 
 831              		.loc 1 136 9 is_stmt 1 view .LVU286
 136:Core/Src/cnc_core.c **** 
 832              		.loc 1 136 29 is_stmt 0 view .LVU287
 833 0054 C821     		movs	r1, #200
 834 0056 8181     		strh	r1, [r0, #12]	@ movhi
 835 0058 E5E7     		b	.L51
 836              	.L52:
 141:Core/Src/cnc_core.c **** 
 837              		.loc 1 141 9 is_stmt 1 view .LVU288
 141:Core/Src/cnc_core.c **** 
 838              		.loc 1 141 29 is_stmt 0 view .LVU289
 839 005a C821     		movs	r1, #200
 840 005c C181     		strh	r1, [r0, #14]	@ movhi
 841 005e ECE7     		b	.L53
 842              		.cfi_endproc
 843              	.LFE293:
 845              		.section	.text.CNC_TIM_Callback_X,"ax",%progbits
 846              		.align	1
 847              		.global	CNC_TIM_Callback_X
 848              		.syntax unified
 849              		.thumb
 850              		.thumb_func
 852              	CNC_TIM_Callback_X:
 853              	.LVL46:
 854              	.LFB294:
 148:Core/Src/cnc_core.c **** 
 149:Core/Src/cnc_core.c **** void CNC_TIM_Callback_X(HMI_info_t* const info){
 855              		.loc 1 149 48 is_stmt 1 view -0
 856              		.cfi_startproc
 857              		@ args = 0, pretend = 0, frame = 0
 858              		@ frame_needed = 0, uses_anonymous_args = 0
 859              		@ link register save eliminated.
 150:Core/Src/cnc_core.c **** 
 151:Core/Src/cnc_core.c ****     if(info->dir.x)
 860              		.loc 1 151 5 view .LVU291
 861              		.loc 1 151 17 is_stmt 0 view .LVU292
 862 0000 037C     		ldrb	r3, [r0, #16]	@ zero_extendqisi2
 863              		.loc 1 151 7 view .LVU293
 864 0002 7BB1     		cbz	r3, .L56
 152:Core/Src/cnc_core.c ****         info->pos.x++;
 865              		.loc 1 152 9 is_stmt 1 view .LVU294
 866              		.loc 1 152 18 is_stmt 0 view .LVU295
ARM GAS  /tmp/cclZJU8r.s 			page 19


 867 0004 4368     		ldr	r3, [r0, #4]
 868              		.loc 1 152 20 view .LVU296
 869 0006 0133     		adds	r3, r3, #1
 870 0008 4360     		str	r3, [r0, #4]
 871              	.L57:
 153:Core/Src/cnc_core.c ****     else{
 154:Core/Src/cnc_core.c ****         if(info->pos.x != 0)
 155:Core/Src/cnc_core.c ****             info->pos.x--;
 156:Core/Src/cnc_core.c ****     }
 157:Core/Src/cnc_core.c ****     info->update = true;         
 872              		.loc 1 157 5 is_stmt 1 view .LVU297
 873              		.loc 1 157 18 is_stmt 0 view .LVU298
 874 000a 0123     		movs	r3, #1
 875 000c 80F83530 		strb	r3, [r0, #53]
 158:Core/Src/cnc_core.c ****     if(info->runX)
 876              		.loc 1 158 5 is_stmt 1 view .LVU299
 877              		.loc 1 158 12 is_stmt 0 view .LVU300
 878 0010 90F83830 		ldrb	r3, [r0, #56]	@ zero_extendqisi2
 879              		.loc 1 158 7 view .LVU301
 880 0014 2BB1     		cbz	r3, .L55
 159:Core/Src/cnc_core.c ****         info->htimX->Instance->CR1 |= TIM_CR1_ARPE | TIM_CR1_OPM | TIM_CR1_CEN;
 881              		.loc 1 159 9 is_stmt 1 view .LVU302
 882              		.loc 1 159 13 is_stmt 0 view .LVU303
 883 0016 036C     		ldr	r3, [r0, #64]
 884              		.loc 1 159 20 view .LVU304
 885 0018 1A68     		ldr	r2, [r3]
 886              		.loc 1 159 36 view .LVU305
 887 001a 1368     		ldr	r3, [r2]
 888 001c 43F08903 		orr	r3, r3, #137
 889 0020 1360     		str	r3, [r2]
 890              	.L55:
 160:Core/Src/cnc_core.c **** }
 891              		.loc 1 160 1 view .LVU306
 892 0022 7047     		bx	lr
 893              	.L56:
 154:Core/Src/cnc_core.c ****             info->pos.x--;
 894              		.loc 1 154 9 is_stmt 1 view .LVU307
 154:Core/Src/cnc_core.c ****             info->pos.x--;
 895              		.loc 1 154 21 is_stmt 0 view .LVU308
 896 0024 4368     		ldr	r3, [r0, #4]
 154:Core/Src/cnc_core.c ****             info->pos.x--;
 897              		.loc 1 154 11 view .LVU309
 898 0026 002B     		cmp	r3, #0
 899 0028 EFD0     		beq	.L57
 155:Core/Src/cnc_core.c ****     }
 900              		.loc 1 155 13 is_stmt 1 view .LVU310
 155:Core/Src/cnc_core.c ****     }
 901              		.loc 1 155 24 is_stmt 0 view .LVU311
 902 002a 013B     		subs	r3, r3, #1
 903 002c 4360     		str	r3, [r0, #4]
 904 002e ECE7     		b	.L57
 905              		.cfi_endproc
 906              	.LFE294:
 908              		.section	.text.CNC_TIM_Callback_Y,"ax",%progbits
 909              		.align	1
 910              		.global	CNC_TIM_Callback_Y
 911              		.syntax unified
ARM GAS  /tmp/cclZJU8r.s 			page 20


 912              		.thumb
 913              		.thumb_func
 915              	CNC_TIM_Callback_Y:
 916              	.LVL47:
 917              	.LFB295:
 161:Core/Src/cnc_core.c **** 
 162:Core/Src/cnc_core.c **** void CNC_TIM_Callback_Y(HMI_info_t* const info){
 918              		.loc 1 162 48 is_stmt 1 view -0
 919              		.cfi_startproc
 920              		@ args = 0, pretend = 0, frame = 0
 921              		@ frame_needed = 0, uses_anonymous_args = 0
 922              		@ link register save eliminated.
 163:Core/Src/cnc_core.c **** 
 164:Core/Src/cnc_core.c ****     if(info->dir.y)
 923              		.loc 1 164 5 view .LVU313
 924              		.loc 1 164 17 is_stmt 0 view .LVU314
 925 0000 437C     		ldrb	r3, [r0, #17]	@ zero_extendqisi2
 926              		.loc 1 164 7 view .LVU315
 927 0002 7BB1     		cbz	r3, .L60
 165:Core/Src/cnc_core.c ****         info->pos.y++;
 928              		.loc 1 165 9 is_stmt 1 view .LVU316
 929              		.loc 1 165 18 is_stmt 0 view .LVU317
 930 0004 8368     		ldr	r3, [r0, #8]
 931              		.loc 1 165 20 view .LVU318
 932 0006 0133     		adds	r3, r3, #1
 933 0008 8360     		str	r3, [r0, #8]
 934              	.L61:
 166:Core/Src/cnc_core.c ****     else{
 167:Core/Src/cnc_core.c ****         if(info->pos.y != 0)
 168:Core/Src/cnc_core.c ****             info->pos.y--;
 169:Core/Src/cnc_core.c ****     }
 170:Core/Src/cnc_core.c ****     info->update = true;  
 935              		.loc 1 170 5 is_stmt 1 view .LVU319
 936              		.loc 1 170 18 is_stmt 0 view .LVU320
 937 000a 0123     		movs	r3, #1
 938 000c 80F83530 		strb	r3, [r0, #53]
 171:Core/Src/cnc_core.c ****     if(info->runY)
 939              		.loc 1 171 5 is_stmt 1 view .LVU321
 940              		.loc 1 171 12 is_stmt 0 view .LVU322
 941 0010 90F83930 		ldrb	r3, [r0, #57]	@ zero_extendqisi2
 942              		.loc 1 171 7 view .LVU323
 943 0014 2BB1     		cbz	r3, .L59
 172:Core/Src/cnc_core.c ****         info->htimY->Instance->CR1 |= TIM_CR1_ARPE | TIM_CR1_OPM | TIM_CR1_CEN;
 944              		.loc 1 172 9 is_stmt 1 view .LVU324
 945              		.loc 1 172 13 is_stmt 0 view .LVU325
 946 0016 436C     		ldr	r3, [r0, #68]
 947              		.loc 1 172 20 view .LVU326
 948 0018 1A68     		ldr	r2, [r3]
 949              		.loc 1 172 36 view .LVU327
 950 001a 1368     		ldr	r3, [r2]
 951 001c 43F08903 		orr	r3, r3, #137
 952 0020 1360     		str	r3, [r2]
 953              	.L59:
 173:Core/Src/cnc_core.c **** }
 954              		.loc 1 173 1 view .LVU328
 955 0022 7047     		bx	lr
 956              	.L60:
ARM GAS  /tmp/cclZJU8r.s 			page 21


 167:Core/Src/cnc_core.c ****             info->pos.y--;
 957              		.loc 1 167 9 is_stmt 1 view .LVU329
 167:Core/Src/cnc_core.c ****             info->pos.y--;
 958              		.loc 1 167 21 is_stmt 0 view .LVU330
 959 0024 8368     		ldr	r3, [r0, #8]
 167:Core/Src/cnc_core.c ****             info->pos.y--;
 960              		.loc 1 167 11 view .LVU331
 961 0026 002B     		cmp	r3, #0
 962 0028 EFD0     		beq	.L61
 168:Core/Src/cnc_core.c ****     }
 963              		.loc 1 168 13 is_stmt 1 view .LVU332
 168:Core/Src/cnc_core.c ****     }
 964              		.loc 1 168 24 is_stmt 0 view .LVU333
 965 002a 013B     		subs	r3, r3, #1
 966 002c 8360     		str	r3, [r0, #8]
 967 002e ECE7     		b	.L61
 968              		.cfi_endproc
 969              	.LFE295:
 971              		.section	.text.CNC_HL_Control,"ax",%progbits
 972              		.align	1
 973              		.global	CNC_HL_Control
 974              		.syntax unified
 975              		.thumb
 976              		.thumb_func
 978              	CNC_HL_Control:
 979              	.LVL48:
 980              	.LFB296:
 174:Core/Src/cnc_core.c **** 
 175:Core/Src/cnc_core.c **** void CNC_HL_Control(HMI_info_t* const info, UART_HandleTypeDef *huart, volatile uint16_t *adc_data)
 981              		.loc 1 175 100 is_stmt 1 view -0
 982              		.cfi_startproc
 983              		@ args = 0, pretend = 0, frame = 0
 984              		@ frame_needed = 0, uses_anonymous_args = 0
 985              		.loc 1 175 100 is_stmt 0 view .LVU335
 986 0000 10B5     		push	{r4, lr}
 987              		.cfi_def_cfa_offset 8
 988              		.cfi_offset 4, -8
 989              		.cfi_offset 14, -4
 990 0002 0446     		mov	r4, r0
 991 0004 0846     		mov	r0, r1
 992              	.LVL49:
 176:Core/Src/cnc_core.c ****     switch (info->mode) {
 993              		.loc 1 176 5 is_stmt 1 view .LVU336
 994              		.loc 1 176 17 is_stmt 0 view .LVU337
 995 0006 2378     		ldrb	r3, [r4]	@ zero_extendqisi2
 996              		.loc 1 176 5 view .LVU338
 997 0008 032B     		cmp	r3, #3
 998 000a 37D8     		bhi	.L63
 999 000c DFE803F0 		tbb	[pc, r3]
 1000              	.LVL50:
 1001              	.L66:
 1002 0010 02       		.byte	(.L69-.L66)/2
 1003 0011 0F       		.byte	(.L68-.L66)/2
 1004 0012 37       		.byte	(.L67-.L66)/2
 1005 0013 9A       		.byte	(.L65-.L66)/2
 1006              		.p2align 1
 1007              	.L69:
ARM GAS  /tmp/cclZJU8r.s 			page 22


 1008              	.LBB2:
 177:Core/Src/cnc_core.c ****         case  HMI_Mode_Zero:
 178:Core/Src/cnc_core.c ****             if(info->state == HMI_State_Run){
 1009              		.loc 1 178 13 is_stmt 1 view .LVU339
 1010              		.loc 1 178 20 is_stmt 0 view .LVU340
 1011 0014 6378     		ldrb	r3, [r4, #1]	@ zero_extendqisi2
 1012              		.loc 1 178 15 view .LVU341
 1013 0016 022B     		cmp	r3, #2
 1014 0018 30D1     		bne	.L63
 179:Core/Src/cnc_core.c ****                 if(HMI_Move_None){
 1015              		.loc 1 179 17 is_stmt 1 view .LVU342
 180:Core/Src/cnc_core.c ****                     info->move = HMI_Move_Jog;
 1016              		.loc 1 180 21 view .LVU343
 1017              		.loc 1 180 32 is_stmt 0 view .LVU344
 1018 001a 0123     		movs	r3, #1
 1019 001c A370     		strb	r3, [r4, #2]
 181:Core/Src/cnc_core.c ****                     info->commanded.speed.x = -2000;  
 1020              		.loc 1 181 21 is_stmt 1 view .LVU345
 1021              		.loc 1 181 45 is_stmt 0 view .LVU346
 1022 001e A3F2D173 		subw	r3, r3, #2001
 1023 0022 6361     		str	r3, [r4, #20]
 182:Core/Src/cnc_core.c ****                     info->commanded.speed.y = -2000;
 1024              		.loc 1 182 21 is_stmt 1 view .LVU347
 1025              		.loc 1 182 45 is_stmt 0 view .LVU348
 1026 0024 A361     		str	r3, [r4, #24]
 183:Core/Src/cnc_core.c ****                     CNC_Jog(info);
 1027              		.loc 1 183 21 is_stmt 1 view .LVU349
 1028 0026 2046     		mov	r0, r4
 1029              	.LVL51:
 1030              		.loc 1 183 21 is_stmt 0 view .LVU350
 1031 0028 FFF7FEFF 		bl	CNC_Jog
 1032              	.LVL52:
 1033              		.loc 1 183 21 view .LVU351
 1034 002c 26E0     		b	.L63
 1035              	.LVL53:
 1036              	.L68:
 184:Core/Src/cnc_core.c ****                 }
 185:Core/Src/cnc_core.c ****             }
 186:Core/Src/cnc_core.c ****         break;
 187:Core/Src/cnc_core.c **** 
 188:Core/Src/cnc_core.c ****         case  HMI_Mode_Man:
 189:Core/Src/cnc_core.c ****             info->move = HMI_Move_Jog;
 1037              		.loc 1 189 13 is_stmt 1 view .LVU352
 1038              		.loc 1 189 24 is_stmt 0 view .LVU353
 1039 002e 0123     		movs	r3, #1
 1040 0030 A370     		strb	r3, [r4, #2]
 190:Core/Src/cnc_core.c ****             int16_t jogX = ((int16_t) (adc_data[6]>>1)) - (1844/2); //subtract center value X
 1041              		.loc 1 190 13 is_stmt 1 view .LVU354
 1042              		.loc 1 190 48 is_stmt 0 view .LVU355
 1043 0032 9189     		ldrh	r1, [r2, #12]
 1044              		.loc 1 190 29 view .LVU356
 1045 0034 C1F34E01 		ubfx	r1, r1, #1, #15
 1046              		.loc 1 190 57 view .LVU357
 1047 0038 A1F29A31 		subw	r1, r1, #922
 1048              		.loc 1 190 21 view .LVU358
 1049 003c 09B2     		sxth	r1, r1
 1050              	.LVL54:
ARM GAS  /tmp/cclZJU8r.s 			page 23


 191:Core/Src/cnc_core.c ****             int16_t jogY = ((int16_t) (adc_data[7]>>1)) - (1814/2); //subtract center value Y
 1051              		.loc 1 191 13 is_stmt 1 view .LVU359
 1052              		.loc 1 191 48 is_stmt 0 view .LVU360
 1053 003e D389     		ldrh	r3, [r2, #14]
 1054              		.loc 1 191 29 view .LVU361
 1055 0040 C3F34E03 		ubfx	r3, r3, #1, #15
 1056              		.loc 1 191 57 view .LVU362
 1057 0044 A3F28B33 		subw	r3, r3, #907
 1058              		.loc 1 191 21 view .LVU363
 1059 0048 1BB2     		sxth	r3, r3
 1060              	.LVL55:
 192:Core/Src/cnc_core.c ****             info->commanded.speed.x = (abs(jogX) > 70) ? jogX*4 : 0;  // dead zone near center X
 1061              		.loc 1 192 13 is_stmt 1 view .LVU364
 1062              		.loc 1 192 40 is_stmt 0 view .LVU365
 1063 004a 81EAE172 		eor	r2, r1, r1, asr #31
 1064              	.LVL56:
 1065              		.loc 1 192 40 view .LVU366
 1066 004e A2EBE172 		sub	r2, r2, r1, asr #31
 1067 0052 92B2     		uxth	r2, r2
 1068              		.loc 1 192 65 view .LVU367
 1069 0054 462A     		cmp	r2, #70
 1070 0056 01D9     		bls	.L89
 1071              		.loc 1 192 65 discriminator 1 view .LVU368
 1072 0058 8900     		lsls	r1, r1, #2
 1073              	.LVL57:
 1074              		.loc 1 192 65 discriminator 1 view .LVU369
 1075 005a 00E0     		b	.L70
 1076              	.LVL58:
 1077              	.L89:
 1078              		.loc 1 192 65 view .LVU370
 1079 005c 0021     		movs	r1, #0
 1080              	.LVL59:
 1081              	.L70:
 1082              		.loc 1 192 37 discriminator 4 view .LVU371
 1083 005e 6161     		str	r1, [r4, #20]
 193:Core/Src/cnc_core.c ****             info->commanded.speed.y = (abs(jogY) > 70) ? jogY*4 : 0;  // dead zone near center Y
 1084              		.loc 1 193 13 is_stmt 1 discriminator 4 view .LVU372
 1085              		.loc 1 193 40 is_stmt 0 discriminator 4 view .LVU373
 1086 0060 83EAE372 		eor	r2, r3, r3, asr #31
 1087 0064 A2EBE372 		sub	r2, r2, r3, asr #31
 1088 0068 92B2     		uxth	r2, r2
 1089              		.loc 1 193 65 discriminator 4 view .LVU374
 1090 006a 462A     		cmp	r2, #70
 1091 006c 01D9     		bls	.L90
 1092              		.loc 1 193 65 discriminator 1 view .LVU375
 1093 006e 9B00     		lsls	r3, r3, #2
 1094              	.LVL60:
 1095              		.loc 1 193 65 discriminator 1 view .LVU376
 1096 0070 00E0     		b	.L71
 1097              	.LVL61:
 1098              	.L90:
 1099              		.loc 1 193 65 view .LVU377
 1100 0072 0023     		movs	r3, #0
 1101              	.LVL62:
 1102              	.L71:
 1103              		.loc 1 193 37 discriminator 4 view .LVU378
 1104 0074 A361     		str	r3, [r4, #24]
ARM GAS  /tmp/cclZJU8r.s 			page 24


 194:Core/Src/cnc_core.c ****             CNC_Jog(info);
 1105              		.loc 1 194 13 is_stmt 1 discriminator 4 view .LVU379
 1106 0076 2046     		mov	r0, r4
 1107              	.LVL63:
 1108              		.loc 1 194 13 is_stmt 0 discriminator 4 view .LVU380
 1109 0078 FFF7FEFF 		bl	CNC_Jog
 1110              	.LVL64:
 195:Core/Src/cnc_core.c ****         break;
 1111              		.loc 1 195 9 is_stmt 1 discriminator 4 view .LVU381
 1112              	.L63:
 1113              		.loc 1 195 9 is_stmt 0 discriminator 4 view .LVU382
 1114              	.LBE2:
 196:Core/Src/cnc_core.c **** 
 197:Core/Src/cnc_core.c ****         case  HMI_Mode_Face:
 198:Core/Src/cnc_core.c ****             if(info->state == HMI_State_Run){
 199:Core/Src/cnc_core.c ****                 switch (info->move) {
 200:Core/Src/cnc_core.c ****                     case HMI_Move_None:
 201:Core/Src/cnc_core.c ****                         if(info->P1.x > info->P2.x){
 202:Core/Src/cnc_core.c ****                             uint32_t swapX = info->P1.x;
 203:Core/Src/cnc_core.c ****                             info->P1.x = info->P2.x;
 204:Core/Src/cnc_core.c ****                             info->P2.x = swapX;
 205:Core/Src/cnc_core.c ****                         }
 206:Core/Src/cnc_core.c **** 
 207:Core/Src/cnc_core.c ****                         if(info->P1.y > info->P2.y){
 208:Core/Src/cnc_core.c ****                             uint32_t swapY = info->P1.y;
 209:Core/Src/cnc_core.c ****                             info->P1.y = info->P2.y;
 210:Core/Src/cnc_core.c ****                             info->P2.y = swapY;
 211:Core/Src/cnc_core.c ****                         }
 212:Core/Src/cnc_core.c **** 
 213:Core/Src/cnc_core.c ****                         info->commanded.pos.x = info->P1.x;
 214:Core/Src/cnc_core.c ****                         info->commanded.pos.y = info->P1.y;
 215:Core/Src/cnc_core.c ****                         info->move = HMI_Move_Absolute;
 216:Core/Src/cnc_core.c ****                     break;
 217:Core/Src/cnc_core.c **** 
 218:Core/Src/cnc_core.c ****                     case HMI_Move_Face1:
 219:Core/Src/cnc_core.c ****                         info->commanded.pos.x = info->P2.x;
 220:Core/Src/cnc_core.c ****                         if(CNC_AbsoluteX(info))
 221:Core/Src/cnc_core.c ****                             info->move = HMI_Move_Face2;
 222:Core/Src/cnc_core.c ****                     break;
 223:Core/Src/cnc_core.c **** 
 224:Core/Src/cnc_core.c ****                     case HMI_Move_Face2:
 225:Core/Src/cnc_core.c ****                         uint32_t newPosY = info->pos.y + face_depth_Y;
 226:Core/Src/cnc_core.c ****                         if(newPosY < info->P2.y)
 227:Core/Src/cnc_core.c ****                             info->commanded.pos.y = newPosY;
 228:Core/Src/cnc_core.c ****                         else
 229:Core/Src/cnc_core.c ****                             info->commanded.pos.y = info->P2.y;
 230:Core/Src/cnc_core.c ****                         if(CNC_AbsoluteY(info))
 231:Core/Src/cnc_core.c ****                             info->move = HMI_Move_Face3;
 232:Core/Src/cnc_core.c ****                     break;
 233:Core/Src/cnc_core.c **** 
 234:Core/Src/cnc_core.c ****                     case HMI_Move_Face3:
 235:Core/Src/cnc_core.c ****                         info->commanded.pos.x = info->P1.x;
 236:Core/Src/cnc_core.c ****                         if(CNC_AbsoluteX(info)){
 237:Core/Src/cnc_core.c ****                             if(info->pos.y >= info->P2.y){
 238:Core/Src/cnc_core.c ****                                 info->move = HMI_Move_None;
 239:Core/Src/cnc_core.c ****                                 info->state = HMI_State_Stop;
 240:Core/Src/cnc_core.c ****                             }
ARM GAS  /tmp/cclZJU8r.s 			page 25


 241:Core/Src/cnc_core.c ****                             else
 242:Core/Src/cnc_core.c ****                                 info->move = HMI_Move_Face4;
 243:Core/Src/cnc_core.c ****                         }
 244:Core/Src/cnc_core.c ****                     break;
 245:Core/Src/cnc_core.c **** 
 246:Core/Src/cnc_core.c ****                     case HMI_Move_Face4:
 247:Core/Src/cnc_core.c ****                         info->commanded.pos.y = info->pos.y - face_retract_Y;
 248:Core/Src/cnc_core.c ****                         if(CNC_AbsoluteY(info))
 249:Core/Src/cnc_core.c ****                             info->move = HMI_Move_Face1;
 250:Core/Src/cnc_core.c ****                     break;
 251:Core/Src/cnc_core.c **** 
 252:Core/Src/cnc_core.c ****                     case HMI_Move_Done:
 253:Core/Src/cnc_core.c ****                         info->move = HMI_Move_Face1;
 254:Core/Src/cnc_core.c ****                     break;
 255:Core/Src/cnc_core.c **** 
 256:Core/Src/cnc_core.c ****                     case HMI_Move_Absolute:
 257:Core/Src/cnc_core.c ****                         CNC_Absolute(info);
 258:Core/Src/cnc_core.c ****                     break;
 259:Core/Src/cnc_core.c **** 
 260:Core/Src/cnc_core.c ****                     default:
 261:Core/Src/cnc_core.c ****                         info->move = HMI_Move_None;
 262:Core/Src/cnc_core.c ****                     break;
 263:Core/Src/cnc_core.c ****                 }
 264:Core/Src/cnc_core.c ****             }
 265:Core/Src/cnc_core.c ****         break; 
 266:Core/Src/cnc_core.c **** 
 267:Core/Src/cnc_core.c ****         case  HMI_Mode_Ser:
 268:Core/Src/cnc_core.c ****             if(info->state == HMI_State_Run){
 269:Core/Src/cnc_core.c ****                 switch (info->move) {
 270:Core/Src/cnc_core.c ****                 case HMI_Move_None:
 271:Core/Src/cnc_core.c ****                     //HAL_UART_Receive_DMA(&huart1, UART1_rxBuffer, 12);
 272:Core/Src/cnc_core.c ****                     //if(ReadGcode(huart, info)) 
 273:Core/Src/cnc_core.c ****                     //    info->move = HMI_Move_Absolute; 
 274:Core/Src/cnc_core.c ****                     //else
 275:Core/Src/cnc_core.c ****                     //    WriteACK(huart, false);
 276:Core/Src/cnc_core.c ****                 break;
 277:Core/Src/cnc_core.c **** 
 278:Core/Src/cnc_core.c ****                 case HMI_Move_Done:
 279:Core/Src/cnc_core.c ****                     info->move = HMI_Move_None;
 280:Core/Src/cnc_core.c ****                     info->update = true;
 281:Core/Src/cnc_core.c ****                     WriteACK(huart, true);
 282:Core/Src/cnc_core.c ****                 break;
 283:Core/Src/cnc_core.c **** 
 284:Core/Src/cnc_core.c ****                 case HMI_Move_Absolute:
 285:Core/Src/cnc_core.c ****                     CNC_Absolute(info);
 286:Core/Src/cnc_core.c ****                 break;
 287:Core/Src/cnc_core.c **** 
 288:Core/Src/cnc_core.c ****                 default:
 289:Core/Src/cnc_core.c ****                     info->move = HMI_Move_None;
 290:Core/Src/cnc_core.c ****                 break;
 291:Core/Src/cnc_core.c ****                 }
 292:Core/Src/cnc_core.c ****             }            
 293:Core/Src/cnc_core.c ****         break;
 294:Core/Src/cnc_core.c ****     }
 295:Core/Src/cnc_core.c **** }
 1115              		.loc 1 295 1 view .LVU383
 1116 007c 10BD     		pop	{r4, pc}
ARM GAS  /tmp/cclZJU8r.s 			page 26


 1117              	.LVL65:
 1118              	.L67:
 1119              	.LBB6:
 198:Core/Src/cnc_core.c ****                 switch (info->move) {
 1120              		.loc 1 198 13 is_stmt 1 view .LVU384
 198:Core/Src/cnc_core.c ****                 switch (info->move) {
 1121              		.loc 1 198 20 is_stmt 0 view .LVU385
 1122 007e 6378     		ldrb	r3, [r4, #1]	@ zero_extendqisi2
 198:Core/Src/cnc_core.c ****                 switch (info->move) {
 1123              		.loc 1 198 15 view .LVU386
 1124 0080 022B     		cmp	r3, #2
 1125 0082 FBD1     		bne	.L63
 199:Core/Src/cnc_core.c ****                     case HMI_Move_None:
 1126              		.loc 1 199 17 is_stmt 1 view .LVU387
 199:Core/Src/cnc_core.c ****                     case HMI_Move_None:
 1127              		.loc 1 199 29 is_stmt 0 view .LVU388
 1128 0084 A378     		ldrb	r3, [r4, #2]	@ zero_extendqisi2
 1129 0086 072B     		cmp	r3, #7
 1130 0088 59D8     		bhi	.L72
 1131 008a DFE803F0 		tbb	[pc, r3]
 1132              	.LVL66:
 1133              	.L74:
 1134 008e 54       		.byte	(.L80-.L74)/2
 1135 008f 58       		.byte	(.L72-.L74)/2
 1136 0090 04       		.byte	(.L79-.L74)/2
 1137 0091 51       		.byte	(.L78-.L74)/2
 1138 0092 17       		.byte	(.L77-.L74)/2
 1139 0093 21       		.byte	(.L76-.L74)/2
 1140 0094 32       		.byte	(.L75-.L74)/2
 1141 0095 45       		.byte	(.L73-.L74)/2
 1142              		.p2align 1
 1143              	.L79:
 1144              	.LBB3:
 201:Core/Src/cnc_core.c ****                             uint32_t swapX = info->P1.x;
 1145              		.loc 1 201 25 is_stmt 1 view .LVU389
 201:Core/Src/cnc_core.c ****                             uint32_t swapX = info->P1.x;
 1146              		.loc 1 201 36 is_stmt 0 view .LVU390
 1147 0096 236A     		ldr	r3, [r4, #32]
 201:Core/Src/cnc_core.c ****                             uint32_t swapX = info->P1.x;
 1148              		.loc 1 201 49 view .LVU391
 1149 0098 A26A     		ldr	r2, [r4, #40]
 201:Core/Src/cnc_core.c ****                             uint32_t swapX = info->P1.x;
 1150              		.loc 1 201 27 view .LVU392
 1151 009a 9342     		cmp	r3, r2
 1152 009c 01D9     		bls	.L81
 1153              	.LBB4:
 202:Core/Src/cnc_core.c ****                             info->P1.x = info->P2.x;
 1154              		.loc 1 202 29 is_stmt 1 view .LVU393
 1155              	.LVL67:
 203:Core/Src/cnc_core.c ****                             info->P2.x = swapX;
 1156              		.loc 1 203 29 view .LVU394
 203:Core/Src/cnc_core.c ****                             info->P2.x = swapX;
 1157              		.loc 1 203 40 is_stmt 0 view .LVU395
 1158 009e 2262     		str	r2, [r4, #32]
 204:Core/Src/cnc_core.c ****                         }
 1159              		.loc 1 204 29 is_stmt 1 view .LVU396
 204:Core/Src/cnc_core.c ****                         }
ARM GAS  /tmp/cclZJU8r.s 			page 27


 1160              		.loc 1 204 40 is_stmt 0 view .LVU397
 1161 00a0 A362     		str	r3, [r4, #40]
 1162              	.LVL68:
 1163              	.L81:
 204:Core/Src/cnc_core.c ****                         }
 1164              		.loc 1 204 40 view .LVU398
 1165              	.LBE4:
 207:Core/Src/cnc_core.c ****                             uint32_t swapY = info->P1.y;
 1166              		.loc 1 207 25 is_stmt 1 view .LVU399
 207:Core/Src/cnc_core.c ****                             uint32_t swapY = info->P1.y;
 1167              		.loc 1 207 36 is_stmt 0 view .LVU400
 1168 00a2 636A     		ldr	r3, [r4, #36]
 207:Core/Src/cnc_core.c ****                             uint32_t swapY = info->P1.y;
 1169              		.loc 1 207 49 view .LVU401
 1170 00a4 E26A     		ldr	r2, [r4, #44]
 207:Core/Src/cnc_core.c ****                             uint32_t swapY = info->P1.y;
 1171              		.loc 1 207 27 view .LVU402
 1172 00a6 9342     		cmp	r3, r2
 1173 00a8 01D9     		bls	.L82
 1174              	.LBB5:
 208:Core/Src/cnc_core.c ****                             info->P1.y = info->P2.y;
 1175              		.loc 1 208 29 is_stmt 1 view .LVU403
 1176              	.LVL69:
 209:Core/Src/cnc_core.c ****                             info->P2.y = swapY;
 1177              		.loc 1 209 29 view .LVU404
 209:Core/Src/cnc_core.c ****                             info->P2.y = swapY;
 1178              		.loc 1 209 40 is_stmt 0 view .LVU405
 1179 00aa 6262     		str	r2, [r4, #36]
 210:Core/Src/cnc_core.c ****                         }
 1180              		.loc 1 210 29 is_stmt 1 view .LVU406
 210:Core/Src/cnc_core.c ****                         }
 1181              		.loc 1 210 40 is_stmt 0 view .LVU407
 1182 00ac E362     		str	r3, [r4, #44]
 1183              	.LVL70:
 1184              	.L82:
 210:Core/Src/cnc_core.c ****                         }
 1185              		.loc 1 210 40 view .LVU408
 1186              	.LBE5:
 213:Core/Src/cnc_core.c ****                         info->commanded.pos.y = info->P1.y;
 1187              		.loc 1 213 25 is_stmt 1 view .LVU409
 213:Core/Src/cnc_core.c ****                         info->commanded.pos.y = info->P1.y;
 1188              		.loc 1 213 57 is_stmt 0 view .LVU410
 1189 00ae 236A     		ldr	r3, [r4, #32]
 213:Core/Src/cnc_core.c ****                         info->commanded.pos.y = info->P1.y;
 1190              		.loc 1 213 47 view .LVU411
 1191 00b0 6361     		str	r3, [r4, #20]
 214:Core/Src/cnc_core.c ****                         info->move = HMI_Move_Absolute;
 1192              		.loc 1 214 25 is_stmt 1 view .LVU412
 214:Core/Src/cnc_core.c ****                         info->move = HMI_Move_Absolute;
 1193              		.loc 1 214 57 is_stmt 0 view .LVU413
 1194 00b2 636A     		ldr	r3, [r4, #36]
 214:Core/Src/cnc_core.c ****                         info->move = HMI_Move_Absolute;
 1195              		.loc 1 214 47 view .LVU414
 1196 00b4 A361     		str	r3, [r4, #24]
 215:Core/Src/cnc_core.c ****                     break;
 1197              		.loc 1 215 25 is_stmt 1 view .LVU415
 215:Core/Src/cnc_core.c ****                     break;
ARM GAS  /tmp/cclZJU8r.s 			page 28


 1198              		.loc 1 215 36 is_stmt 0 view .LVU416
 1199 00b6 0023     		movs	r3, #0
 1200 00b8 A370     		strb	r3, [r4, #2]
 216:Core/Src/cnc_core.c **** 
 1201              		.loc 1 216 21 is_stmt 1 view .LVU417
 1202 00ba DFE7     		b	.L63
 1203              	.L77:
 219:Core/Src/cnc_core.c ****                         if(CNC_AbsoluteX(info))
 1204              		.loc 1 219 25 view .LVU418
 219:Core/Src/cnc_core.c ****                         if(CNC_AbsoluteX(info))
 1205              		.loc 1 219 57 is_stmt 0 view .LVU419
 1206 00bc A36A     		ldr	r3, [r4, #40]
 219:Core/Src/cnc_core.c ****                         if(CNC_AbsoluteX(info))
 1207              		.loc 1 219 47 view .LVU420
 1208 00be 6361     		str	r3, [r4, #20]
 220:Core/Src/cnc_core.c ****                             info->move = HMI_Move_Face2;
 1209              		.loc 1 220 25 is_stmt 1 view .LVU421
 220:Core/Src/cnc_core.c ****                             info->move = HMI_Move_Face2;
 1210              		.loc 1 220 28 is_stmt 0 view .LVU422
 1211 00c0 2046     		mov	r0, r4
 1212              	.LVL71:
 220:Core/Src/cnc_core.c ****                             info->move = HMI_Move_Face2;
 1213              		.loc 1 220 28 view .LVU423
 1214 00c2 FFF7FEFF 		bl	CNC_AbsoluteX
 1215              	.LVL72:
 220:Core/Src/cnc_core.c ****                             info->move = HMI_Move_Face2;
 1216              		.loc 1 220 27 view .LVU424
 1217 00c6 0028     		cmp	r0, #0
 1218 00c8 D8D0     		beq	.L63
 221:Core/Src/cnc_core.c ****                     break;
 1219              		.loc 1 221 29 is_stmt 1 view .LVU425
 221:Core/Src/cnc_core.c ****                     break;
 1220              		.loc 1 221 40 is_stmt 0 view .LVU426
 1221 00ca 0523     		movs	r3, #5
 1222 00cc A370     		strb	r3, [r4, #2]
 1223 00ce D5E7     		b	.L63
 1224              	.LVL73:
 1225              	.L76:
 225:Core/Src/cnc_core.c ****                         if(newPosY < info->P2.y)
 1226              		.loc 1 225 25 is_stmt 1 view .LVU427
 225:Core/Src/cnc_core.c ****                         if(newPosY < info->P2.y)
 1227              		.loc 1 225 53 is_stmt 0 view .LVU428
 1228 00d0 A368     		ldr	r3, [r4, #8]
 225:Core/Src/cnc_core.c ****                         if(newPosY < info->P2.y)
 1229              		.loc 1 225 34 view .LVU429
 1230 00d2 03F5BE73 		add	r3, r3, #380
 1231              	.LVL74:
 226:Core/Src/cnc_core.c ****                             info->commanded.pos.y = newPosY;
 1232              		.loc 1 226 25 is_stmt 1 view .LVU430
 226:Core/Src/cnc_core.c ****                             info->commanded.pos.y = newPosY;
 1233              		.loc 1 226 46 is_stmt 0 view .LVU431
 1234 00d6 E26A     		ldr	r2, [r4, #44]
 226:Core/Src/cnc_core.c ****                             info->commanded.pos.y = newPosY;
 1235              		.loc 1 226 27 view .LVU432
 1236 00d8 9A42     		cmp	r2, r3
 1237 00da 08D9     		bls	.L83
 227:Core/Src/cnc_core.c ****                         else
ARM GAS  /tmp/cclZJU8r.s 			page 29


 1238              		.loc 1 227 29 is_stmt 1 view .LVU433
 227:Core/Src/cnc_core.c ****                         else
 1239              		.loc 1 227 51 is_stmt 0 view .LVU434
 1240 00dc A361     		str	r3, [r4, #24]
 1241              	.L84:
 230:Core/Src/cnc_core.c ****                             info->move = HMI_Move_Face3;
 1242              		.loc 1 230 25 is_stmt 1 view .LVU435
 230:Core/Src/cnc_core.c ****                             info->move = HMI_Move_Face3;
 1243              		.loc 1 230 28 is_stmt 0 view .LVU436
 1244 00de 2046     		mov	r0, r4
 1245              	.LVL75:
 230:Core/Src/cnc_core.c ****                             info->move = HMI_Move_Face3;
 1246              		.loc 1 230 28 view .LVU437
 1247 00e0 FFF7FEFF 		bl	CNC_AbsoluteY
 1248              	.LVL76:
 230:Core/Src/cnc_core.c ****                             info->move = HMI_Move_Face3;
 1249              		.loc 1 230 27 view .LVU438
 1250 00e4 0028     		cmp	r0, #0
 1251 00e6 C9D0     		beq	.L63
 231:Core/Src/cnc_core.c ****                     break;
 1252              		.loc 1 231 29 is_stmt 1 view .LVU439
 231:Core/Src/cnc_core.c ****                     break;
 1253              		.loc 1 231 40 is_stmt 0 view .LVU440
 1254 00e8 0623     		movs	r3, #6
 1255 00ea A370     		strb	r3, [r4, #2]
 1256 00ec C6E7     		b	.L63
 1257              	.LVL77:
 1258              	.L83:
 229:Core/Src/cnc_core.c ****                         if(CNC_AbsoluteY(info))
 1259              		.loc 1 229 29 is_stmt 1 view .LVU441
 229:Core/Src/cnc_core.c ****                         if(CNC_AbsoluteY(info))
 1260              		.loc 1 229 51 is_stmt 0 view .LVU442
 1261 00ee A261     		str	r2, [r4, #24]
 1262 00f0 F5E7     		b	.L84
 1263              	.LVL78:
 1264              	.L75:
 235:Core/Src/cnc_core.c ****                         if(CNC_AbsoluteX(info)){
 1265              		.loc 1 235 25 is_stmt 1 view .LVU443
 235:Core/Src/cnc_core.c ****                         if(CNC_AbsoluteX(info)){
 1266              		.loc 1 235 57 is_stmt 0 view .LVU444
 1267 00f2 236A     		ldr	r3, [r4, #32]
 235:Core/Src/cnc_core.c ****                         if(CNC_AbsoluteX(info)){
 1268              		.loc 1 235 47 view .LVU445
 1269 00f4 6361     		str	r3, [r4, #20]
 236:Core/Src/cnc_core.c ****                             if(info->pos.y >= info->P2.y){
 1270              		.loc 1 236 25 is_stmt 1 view .LVU446
 236:Core/Src/cnc_core.c ****                             if(info->pos.y >= info->P2.y){
 1271              		.loc 1 236 28 is_stmt 0 view .LVU447
 1272 00f6 2046     		mov	r0, r4
 1273              	.LVL79:
 236:Core/Src/cnc_core.c ****                             if(info->pos.y >= info->P2.y){
 1274              		.loc 1 236 28 view .LVU448
 1275 00f8 FFF7FEFF 		bl	CNC_AbsoluteX
 1276              	.LVL80:
 236:Core/Src/cnc_core.c ****                             if(info->pos.y >= info->P2.y){
 1277              		.loc 1 236 27 view .LVU449
 1278 00fc 0028     		cmp	r0, #0
ARM GAS  /tmp/cclZJU8r.s 			page 30


 1279 00fe BDD0     		beq	.L63
 237:Core/Src/cnc_core.c ****                                 info->move = HMI_Move_None;
 1280              		.loc 1 237 29 is_stmt 1 view .LVU450
 237:Core/Src/cnc_core.c ****                                 info->move = HMI_Move_None;
 1281              		.loc 1 237 41 is_stmt 0 view .LVU451
 1282 0100 A268     		ldr	r2, [r4, #8]
 237:Core/Src/cnc_core.c ****                                 info->move = HMI_Move_None;
 1283              		.loc 1 237 55 view .LVU452
 1284 0102 E36A     		ldr	r3, [r4, #44]
 237:Core/Src/cnc_core.c ****                                 info->move = HMI_Move_None;
 1285              		.loc 1 237 31 view .LVU453
 1286 0104 9A42     		cmp	r2, r3
 1287 0106 04D3     		bcc	.L85
 238:Core/Src/cnc_core.c ****                                 info->state = HMI_State_Stop;
 1288              		.loc 1 238 33 is_stmt 1 view .LVU454
 238:Core/Src/cnc_core.c ****                                 info->state = HMI_State_Stop;
 1289              		.loc 1 238 44 is_stmt 0 view .LVU455
 1290 0108 0223     		movs	r3, #2
 1291 010a A370     		strb	r3, [r4, #2]
 239:Core/Src/cnc_core.c ****                             }
 1292              		.loc 1 239 33 is_stmt 1 view .LVU456
 239:Core/Src/cnc_core.c ****                             }
 1293              		.loc 1 239 45 is_stmt 0 view .LVU457
 1294 010c 0023     		movs	r3, #0
 1295 010e 6370     		strb	r3, [r4, #1]
 1296 0110 B4E7     		b	.L63
 1297              	.L85:
 242:Core/Src/cnc_core.c ****                         }
 1298              		.loc 1 242 33 is_stmt 1 view .LVU458
 242:Core/Src/cnc_core.c ****                         }
 1299              		.loc 1 242 44 is_stmt 0 view .LVU459
 1300 0112 0723     		movs	r3, #7
 1301 0114 A370     		strb	r3, [r4, #2]
 1302 0116 B1E7     		b	.L63
 1303              	.LVL81:
 1304              	.L73:
 247:Core/Src/cnc_core.c ****                         if(CNC_AbsoluteY(info))
 1305              		.loc 1 247 25 is_stmt 1 view .LVU460
 247:Core/Src/cnc_core.c ****                         if(CNC_AbsoluteY(info))
 1306              		.loc 1 247 58 is_stmt 0 view .LVU461
 1307 0118 A368     		ldr	r3, [r4, #8]
 247:Core/Src/cnc_core.c ****                         if(CNC_AbsoluteY(info))
 1308              		.loc 1 247 61 view .LVU462
 1309 011a A3F5BE73 		sub	r3, r3, #380
 247:Core/Src/cnc_core.c ****                         if(CNC_AbsoluteY(info))
 1310              		.loc 1 247 47 view .LVU463
 1311 011e A361     		str	r3, [r4, #24]
 248:Core/Src/cnc_core.c ****                             info->move = HMI_Move_Face1;
 1312              		.loc 1 248 25 is_stmt 1 view .LVU464
 248:Core/Src/cnc_core.c ****                             info->move = HMI_Move_Face1;
 1313              		.loc 1 248 28 is_stmt 0 view .LVU465
 1314 0120 2046     		mov	r0, r4
 1315              	.LVL82:
 248:Core/Src/cnc_core.c ****                             info->move = HMI_Move_Face1;
 1316              		.loc 1 248 28 view .LVU466
 1317 0122 FFF7FEFF 		bl	CNC_AbsoluteY
 1318              	.LVL83:
ARM GAS  /tmp/cclZJU8r.s 			page 31


 248:Core/Src/cnc_core.c ****                             info->move = HMI_Move_Face1;
 1319              		.loc 1 248 27 view .LVU467
 1320 0126 0028     		cmp	r0, #0
 1321 0128 A8D0     		beq	.L63
 249:Core/Src/cnc_core.c ****                     break;
 1322              		.loc 1 249 29 is_stmt 1 view .LVU468
 249:Core/Src/cnc_core.c ****                     break;
 1323              		.loc 1 249 40 is_stmt 0 view .LVU469
 1324 012a 0423     		movs	r3, #4
 1325 012c A370     		strb	r3, [r4, #2]
 1326 012e A5E7     		b	.L63
 1327              	.LVL84:
 1328              	.L78:
 253:Core/Src/cnc_core.c ****                     break;
 1329              		.loc 1 253 25 is_stmt 1 view .LVU470
 253:Core/Src/cnc_core.c ****                     break;
 1330              		.loc 1 253 36 is_stmt 0 view .LVU471
 1331 0130 0423     		movs	r3, #4
 1332 0132 A370     		strb	r3, [r4, #2]
 254:Core/Src/cnc_core.c **** 
 1333              		.loc 1 254 21 is_stmt 1 view .LVU472
 1334 0134 A2E7     		b	.L63
 1335              	.L80:
 257:Core/Src/cnc_core.c ****                     break;
 1336              		.loc 1 257 25 view .LVU473
 1337 0136 2046     		mov	r0, r4
 1338              	.LVL85:
 257:Core/Src/cnc_core.c ****                     break;
 1339              		.loc 1 257 25 is_stmt 0 view .LVU474
 1340 0138 FFF7FEFF 		bl	CNC_Absolute
 1341              	.LVL86:
 258:Core/Src/cnc_core.c **** 
 1342              		.loc 1 258 21 is_stmt 1 view .LVU475
 1343 013c 9EE7     		b	.L63
 1344              	.LVL87:
 1345              	.L72:
 261:Core/Src/cnc_core.c ****                     break;
 1346              		.loc 1 261 25 view .LVU476
 261:Core/Src/cnc_core.c ****                     break;
 1347              		.loc 1 261 36 is_stmt 0 view .LVU477
 1348 013e 0223     		movs	r3, #2
 1349 0140 A370     		strb	r3, [r4, #2]
 262:Core/Src/cnc_core.c ****                 }
 1350              		.loc 1 262 21 is_stmt 1 view .LVU478
 1351 0142 9BE7     		b	.L63
 1352              	.LVL88:
 1353              	.L65:
 262:Core/Src/cnc_core.c ****                 }
 1354              		.loc 1 262 21 is_stmt 0 view .LVU479
 1355              	.LBE3:
 268:Core/Src/cnc_core.c ****                 switch (info->move) {
 1356              		.loc 1 268 13 is_stmt 1 view .LVU480
 268:Core/Src/cnc_core.c ****                 switch (info->move) {
 1357              		.loc 1 268 20 is_stmt 0 view .LVU481
 1358 0144 6378     		ldrb	r3, [r4, #1]	@ zero_extendqisi2
 268:Core/Src/cnc_core.c ****                 switch (info->move) {
 1359              		.loc 1 268 15 view .LVU482
ARM GAS  /tmp/cclZJU8r.s 			page 32


 1360 0146 022B     		cmp	r3, #2
 1361 0148 98D1     		bne	.L63
 269:Core/Src/cnc_core.c ****                 case HMI_Move_None:
 1362              		.loc 1 269 17 is_stmt 1 view .LVU483
 269:Core/Src/cnc_core.c ****                 case HMI_Move_None:
 1363              		.loc 1 269 29 is_stmt 0 view .LVU484
 1364 014a A378     		ldrb	r3, [r4, #2]	@ zero_extendqisi2
 1365 014c 022B     		cmp	r3, #2
 1366 014e 95D0     		beq	.L63
 1367 0150 032B     		cmp	r3, #3
 1368 0152 03D0     		beq	.L86
 1369 0154 53B1     		cbz	r3, .L94
 289:Core/Src/cnc_core.c ****                 break;
 1370              		.loc 1 289 21 is_stmt 1 view .LVU485
 289:Core/Src/cnc_core.c ****                 break;
 1371              		.loc 1 289 32 is_stmt 0 view .LVU486
 1372 0156 0223     		movs	r3, #2
 1373 0158 A370     		strb	r3, [r4, #2]
 290:Core/Src/cnc_core.c ****                 }
 1374              		.loc 1 290 17 is_stmt 1 view .LVU487
 1375              	.LBE6:
 1376              		.loc 1 295 1 is_stmt 0 view .LVU488
 1377 015a 8FE7     		b	.L63
 1378              	.L86:
 1379              	.LBB7:
 279:Core/Src/cnc_core.c ****                     info->update = true;
 1380              		.loc 1 279 21 is_stmt 1 view .LVU489
 279:Core/Src/cnc_core.c ****                     info->update = true;
 1381              		.loc 1 279 32 is_stmt 0 view .LVU490
 1382 015c 0223     		movs	r3, #2
 1383 015e A370     		strb	r3, [r4, #2]
 280:Core/Src/cnc_core.c ****                     WriteACK(huart, true);
 1384              		.loc 1 280 21 is_stmt 1 view .LVU491
 280:Core/Src/cnc_core.c ****                     WriteACK(huart, true);
 1385              		.loc 1 280 34 is_stmt 0 view .LVU492
 1386 0160 0121     		movs	r1, #1
 1387 0162 84F83510 		strb	r1, [r4, #53]
 281:Core/Src/cnc_core.c ****                 break;
 1388              		.loc 1 281 21 is_stmt 1 view .LVU493
 1389 0166 FFF7FEFF 		bl	WriteACK
 1390              	.LVL89:
 282:Core/Src/cnc_core.c **** 
 1391              		.loc 1 282 17 view .LVU494
 1392 016a 87E7     		b	.L63
 1393              	.LVL90:
 1394              	.L94:
 285:Core/Src/cnc_core.c ****                 break;
 1395              		.loc 1 285 21 view .LVU495
 1396 016c 2046     		mov	r0, r4
 1397              	.LVL91:
 285:Core/Src/cnc_core.c ****                 break;
 1398              		.loc 1 285 21 is_stmt 0 view .LVU496
 1399 016e FFF7FEFF 		bl	CNC_Absolute
 1400              	.LVL92:
 286:Core/Src/cnc_core.c **** 
 1401              		.loc 1 286 17 is_stmt 1 view .LVU497
 1402 0172 83E7     		b	.L63
ARM GAS  /tmp/cclZJU8r.s 			page 33


 1403              	.LBE7:
 1404              		.cfi_endproc
 1405              	.LFE296:
 1407              		.section	.text.CNC_Stop,"ax",%progbits
 1408              		.align	1
 1409              		.global	CNC_Stop
 1410              		.syntax unified
 1411              		.thumb
 1412              		.thumb_func
 1414              	CNC_Stop:
 1415              	.LVL93:
 1416              	.LFB297:
 296:Core/Src/cnc_core.c **** 
 297:Core/Src/cnc_core.c **** void CNC_Stop(HMI_info_t* const info){
 1417              		.loc 1 297 38 view -0
 1418              		.cfi_startproc
 1419              		@ args = 0, pretend = 0, frame = 0
 1420              		@ frame_needed = 0, uses_anonymous_args = 0
 1421              		@ link register save eliminated.
 298:Core/Src/cnc_core.c ****     info->htimX->Instance->CR1 |= TIM_CR1_OPM;
 1422              		.loc 1 298 5 view .LVU499
 1423              		.loc 1 298 9 is_stmt 0 view .LVU500
 1424 0000 036C     		ldr	r3, [r0, #64]
 1425              		.loc 1 298 16 view .LVU501
 1426 0002 1A68     		ldr	r2, [r3]
 1427              		.loc 1 298 32 view .LVU502
 1428 0004 1368     		ldr	r3, [r2]
 1429 0006 43F00803 		orr	r3, r3, #8
 1430 000a 1360     		str	r3, [r2]
 299:Core/Src/cnc_core.c ****     info->htimY->Instance->CR1 |= TIM_CR1_OPM;
 1431              		.loc 1 299 5 is_stmt 1 view .LVU503
 1432              		.loc 1 299 9 is_stmt 0 view .LVU504
 1433 000c 436C     		ldr	r3, [r0, #68]
 1434              		.loc 1 299 16 view .LVU505
 1435 000e 1A68     		ldr	r2, [r3]
 1436              		.loc 1 299 32 view .LVU506
 1437 0010 1368     		ldr	r3, [r2]
 1438 0012 43F00803 		orr	r3, r3, #8
 1439 0016 1360     		str	r3, [r2]
 300:Core/Src/cnc_core.c ****     info->htimX->Instance->SR = 0x00000000U;
 1440              		.loc 1 300 5 is_stmt 1 view .LVU507
 1441              		.loc 1 300 9 is_stmt 0 view .LVU508
 1442 0018 036C     		ldr	r3, [r0, #64]
 1443              		.loc 1 300 16 view .LVU509
 1444 001a 1A68     		ldr	r2, [r3]
 1445              		.loc 1 300 31 view .LVU510
 1446 001c 0023     		movs	r3, #0
 1447 001e 1361     		str	r3, [r2, #16]
 301:Core/Src/cnc_core.c ****     info->htimY->Instance->SR = 0x00000000U;
 1448              		.loc 1 301 5 is_stmt 1 view .LVU511
 1449              		.loc 1 301 9 is_stmt 0 view .LVU512
 1450 0020 426C     		ldr	r2, [r0, #68]
 1451              		.loc 1 301 16 view .LVU513
 1452 0022 1268     		ldr	r2, [r2]
 1453              		.loc 1 301 31 view .LVU514
 1454 0024 1361     		str	r3, [r2, #16]
 302:Core/Src/cnc_core.c **** 
ARM GAS  /tmp/cclZJU8r.s 			page 34


 303:Core/Src/cnc_core.c ****     info->state = HMI_State_Stop;
 1455              		.loc 1 303 5 is_stmt 1 view .LVU515
 1456              		.loc 1 303 17 is_stmt 0 view .LVU516
 1457 0026 4370     		strb	r3, [r0, #1]
 304:Core/Src/cnc_core.c ****     info->update = true;
 1458              		.loc 1 304 5 is_stmt 1 view .LVU517
 1459              		.loc 1 304 18 is_stmt 0 view .LVU518
 1460 0028 0122     		movs	r2, #1
 1461 002a 80F83520 		strb	r2, [r0, #53]
 305:Core/Src/cnc_core.c ****     info->cnt2 = 10;
 1462              		.loc 1 305 5 is_stmt 1 view .LVU519
 1463              		.loc 1 305 16 is_stmt 0 view .LVU520
 1464 002e 0A22     		movs	r2, #10
 1465 0030 80F83420 		strb	r2, [r0, #52]
 306:Core/Src/cnc_core.c ****     info->runX = false;
 1466              		.loc 1 306 5 is_stmt 1 view .LVU521
 1467              		.loc 1 306 16 is_stmt 0 view .LVU522
 1468 0034 80F83830 		strb	r3, [r0, #56]
 307:Core/Src/cnc_core.c ****     info->runY = false;
 1469              		.loc 1 307 5 is_stmt 1 view .LVU523
 1470              		.loc 1 307 16 is_stmt 0 view .LVU524
 1471 0038 80F83930 		strb	r3, [r0, #57]
 308:Core/Src/cnc_core.c **** }
 1472              		.loc 1 308 1 view .LVU525
 1473 003c 7047     		bx	lr
 1474              		.cfi_endproc
 1475              	.LFE297:
 1477              		.section	.text.CNC_Limit_X,"ax",%progbits
 1478              		.align	1
 1479              		.global	CNC_Limit_X
 1480              		.syntax unified
 1481              		.thumb
 1482              		.thumb_func
 1484              	CNC_Limit_X:
 1485              	.LVL94:
 1486              	.LFB298:
 309:Core/Src/cnc_core.c **** 
 310:Core/Src/cnc_core.c **** void CNC_Limit_X(HMI_info_t* const info){
 1487              		.loc 1 310 41 is_stmt 1 view -0
 1488              		.cfi_startproc
 1489              		@ args = 0, pretend = 0, frame = 0
 1490              		@ frame_needed = 0, uses_anonymous_args = 0
 1491              		@ link register save eliminated.
 311:Core/Src/cnc_core.c ****     info->htimX->Instance->CR1 |= TIM_CR1_OPM;
 1492              		.loc 1 311 5 view .LVU527
 1493              		.loc 1 311 9 is_stmt 0 view .LVU528
 1494 0000 036C     		ldr	r3, [r0, #64]
 1495              		.loc 1 311 16 view .LVU529
 1496 0002 1A68     		ldr	r2, [r3]
 1497              		.loc 1 311 32 view .LVU530
 1498 0004 1368     		ldr	r3, [r2]
 1499 0006 43F00803 		orr	r3, r3, #8
 1500 000a 1360     		str	r3, [r2]
 312:Core/Src/cnc_core.c ****     info->htimX->Instance->SR = 0x00000000U;
 1501              		.loc 1 312 5 is_stmt 1 view .LVU531
 1502              		.loc 1 312 9 is_stmt 0 view .LVU532
 1503 000c 036C     		ldr	r3, [r0, #64]
ARM GAS  /tmp/cclZJU8r.s 			page 35


 1504              		.loc 1 312 16 view .LVU533
 1505 000e 1A68     		ldr	r2, [r3]
 1506              		.loc 1 312 31 view .LVU534
 1507 0010 0023     		movs	r3, #0
 1508 0012 1361     		str	r3, [r2, #16]
 313:Core/Src/cnc_core.c **** 
 314:Core/Src/cnc_core.c ****     info->state = HMI_State_Stop;
 1509              		.loc 1 314 5 is_stmt 1 view .LVU535
 1510              		.loc 1 314 17 is_stmt 0 view .LVU536
 1511 0014 4370     		strb	r3, [r0, #1]
 315:Core/Src/cnc_core.c ****     info->pos.x = 0;
 1512              		.loc 1 315 5 is_stmt 1 view .LVU537
 1513              		.loc 1 315 17 is_stmt 0 view .LVU538
 1514 0016 4360     		str	r3, [r0, #4]
 316:Core/Src/cnc_core.c ****     info->zeroed.x = true;
 1515              		.loc 1 316 5 is_stmt 1 view .LVU539
 1516              		.loc 1 316 20 is_stmt 0 view .LVU540
 1517 0018 0122     		movs	r2, #1
 1518 001a 80F83A20 		strb	r2, [r0, #58]
 317:Core/Src/cnc_core.c ****     info->update = true;
 1519              		.loc 1 317 5 is_stmt 1 view .LVU541
 1520              		.loc 1 317 18 is_stmt 0 view .LVU542
 1521 001e 80F83520 		strb	r2, [r0, #53]
 318:Core/Src/cnc_core.c ****     info->runX = false;
 1522              		.loc 1 318 5 is_stmt 1 view .LVU543
 1523              		.loc 1 318 16 is_stmt 0 view .LVU544
 1524 0022 80F83830 		strb	r3, [r0, #56]
 319:Core/Src/cnc_core.c **** }
 1525              		.loc 1 319 1 view .LVU545
 1526 0026 7047     		bx	lr
 1527              		.cfi_endproc
 1528              	.LFE298:
 1530              		.section	.text.CNC_Limit_Y,"ax",%progbits
 1531              		.align	1
 1532              		.global	CNC_Limit_Y
 1533              		.syntax unified
 1534              		.thumb
 1535              		.thumb_func
 1537              	CNC_Limit_Y:
 1538              	.LVL95:
 1539              	.LFB299:
 320:Core/Src/cnc_core.c **** 
 321:Core/Src/cnc_core.c **** void CNC_Limit_Y(HMI_info_t* const info){
 1540              		.loc 1 321 41 is_stmt 1 view -0
 1541              		.cfi_startproc
 1542              		@ args = 0, pretend = 0, frame = 0
 1543              		@ frame_needed = 0, uses_anonymous_args = 0
 1544              		@ link register save eliminated.
 322:Core/Src/cnc_core.c ****     info->htimY->Instance->CR1 |= TIM_CR1_OPM;
 1545              		.loc 1 322 5 view .LVU547
 1546              		.loc 1 322 9 is_stmt 0 view .LVU548
 1547 0000 436C     		ldr	r3, [r0, #68]
 1548              		.loc 1 322 16 view .LVU549
 1549 0002 1A68     		ldr	r2, [r3]
 1550              		.loc 1 322 32 view .LVU550
 1551 0004 1368     		ldr	r3, [r2]
 1552 0006 43F00803 		orr	r3, r3, #8
ARM GAS  /tmp/cclZJU8r.s 			page 36


 1553 000a 1360     		str	r3, [r2]
 323:Core/Src/cnc_core.c ****     info->htimY->Instance->SR = 0x00000000U;
 1554              		.loc 1 323 5 is_stmt 1 view .LVU551
 1555              		.loc 1 323 9 is_stmt 0 view .LVU552
 1556 000c 436C     		ldr	r3, [r0, #68]
 1557              		.loc 1 323 16 view .LVU553
 1558 000e 1A68     		ldr	r2, [r3]
 1559              		.loc 1 323 31 view .LVU554
 1560 0010 0023     		movs	r3, #0
 1561 0012 1361     		str	r3, [r2, #16]
 324:Core/Src/cnc_core.c **** 
 325:Core/Src/cnc_core.c ****     info->state = HMI_State_Stop;
 1562              		.loc 1 325 5 is_stmt 1 view .LVU555
 1563              		.loc 1 325 17 is_stmt 0 view .LVU556
 1564 0014 4370     		strb	r3, [r0, #1]
 326:Core/Src/cnc_core.c ****     info->pos.y = 0;
 1565              		.loc 1 326 5 is_stmt 1 view .LVU557
 1566              		.loc 1 326 17 is_stmt 0 view .LVU558
 1567 0016 8360     		str	r3, [r0, #8]
 327:Core/Src/cnc_core.c ****     info->zeroed.y = true;
 1568              		.loc 1 327 5 is_stmt 1 view .LVU559
 1569              		.loc 1 327 20 is_stmt 0 view .LVU560
 1570 0018 0122     		movs	r2, #1
 1571 001a 80F83B20 		strb	r2, [r0, #59]
 328:Core/Src/cnc_core.c ****     info->update = true;
 1572              		.loc 1 328 5 is_stmt 1 view .LVU561
 1573              		.loc 1 328 18 is_stmt 0 view .LVU562
 1574 001e 80F83520 		strb	r2, [r0, #53]
 329:Core/Src/cnc_core.c ****     info->runY = false;
 1575              		.loc 1 329 5 is_stmt 1 view .LVU563
 1576              		.loc 1 329 16 is_stmt 0 view .LVU564
 1577 0022 80F83930 		strb	r3, [r0, #57]
 330:Core/Src/cnc_core.c **** }
 1578              		.loc 1 330 1 view .LVU565
 1579 0026 7047     		bx	lr
 1580              		.cfi_endproc
 1581              	.LFE299:
 1583              		.text
 1584              	.Letext0:
 1585              		.file 2 "/home/retfie/.config/VSCodium/User/globalStorage/bmd.stm32-for-vscode/@xpack-dev-tools/ar
 1586              		.file 3 "/home/retfie/.config/VSCodium/User/globalStorage/bmd.stm32-for-vscode/@xpack-dev-tools/ar
 1587              		.file 4 "Drivers/CMSIS/Device/ST/STM32L4xx/Include/stm32l431xx.h"
 1588              		.file 5 "Drivers/STM32L4xx_HAL_Driver/Inc/stm32l4xx_hal_def.h"
 1589              		.file 6 "Drivers/STM32L4xx_HAL_Driver/Inc/stm32l4xx_hal_gpio.h"
 1590              		.file 7 "Drivers/STM32L4xx_HAL_Driver/Inc/stm32l4xx_hal_dma.h"
 1591              		.file 8 "Drivers/STM32L4xx_HAL_Driver/Inc/stm32l4xx_hal_tim.h"
 1592              		.file 9 "Drivers/STM32L4xx_HAL_Driver/Inc/stm32l4xx_hal_uart.h"
 1593              		.file 10 "Core/Inc/cnc_info.h"
 1594              		.file 11 "Core/Inc/data_parser.h"
ARM GAS  /tmp/cclZJU8r.s 			page 37


DEFINED SYMBOLS
                            *ABS*:0000000000000000 cnc_core.c
     /tmp/cclZJU8r.s:20     .text.ihyp:0000000000000000 $t
     /tmp/cclZJU8r.s:26     .text.ihyp:0000000000000000 ihyp
     /tmp/cclZJU8r.s:65     .text.CNC_Stepper:0000000000000000 $t
     /tmp/cclZJU8r.s:71     .text.CNC_Stepper:0000000000000000 CNC_Stepper
     /tmp/cclZJU8r.s:380    .text.CNC_Stepper:0000000000000160 $d
     /tmp/cclZJU8r.s:387    .text.CNC_Absolute:0000000000000000 $t
     /tmp/cclZJU8r.s:393    .text.CNC_Absolute:0000000000000000 CNC_Absolute
     /tmp/cclZJU8r.s:590    .text.CNC_AbsoluteX:0000000000000000 $t
     /tmp/cclZJU8r.s:596    .text.CNC_AbsoluteX:0000000000000000 CNC_AbsoluteX
     /tmp/cclZJU8r.s:670    .text.CNC_AbsoluteY:0000000000000000 $t
     /tmp/cclZJU8r.s:676    .text.CNC_AbsoluteY:0000000000000000 CNC_AbsoluteY
     /tmp/cclZJU8r.s:750    .text.CNC_Jog:0000000000000000 $t
     /tmp/cclZJU8r.s:756    .text.CNC_Jog:0000000000000000 CNC_Jog
     /tmp/cclZJU8r.s:846    .text.CNC_TIM_Callback_X:0000000000000000 $t
     /tmp/cclZJU8r.s:852    .text.CNC_TIM_Callback_X:0000000000000000 CNC_TIM_Callback_X
     /tmp/cclZJU8r.s:909    .text.CNC_TIM_Callback_Y:0000000000000000 $t
     /tmp/cclZJU8r.s:915    .text.CNC_TIM_Callback_Y:0000000000000000 CNC_TIM_Callback_Y
     /tmp/cclZJU8r.s:972    .text.CNC_HL_Control:0000000000000000 $t
     /tmp/cclZJU8r.s:978    .text.CNC_HL_Control:0000000000000000 CNC_HL_Control
     /tmp/cclZJU8r.s:1002   .text.CNC_HL_Control:0000000000000010 $d
     /tmp/cclZJU8r.s:1006   .text.CNC_HL_Control:0000000000000014 $t
     /tmp/cclZJU8r.s:1134   .text.CNC_HL_Control:000000000000008e $d
     /tmp/cclZJU8r.s:1142   .text.CNC_HL_Control:0000000000000096 $t
     /tmp/cclZJU8r.s:1408   .text.CNC_Stop:0000000000000000 $t
     /tmp/cclZJU8r.s:1414   .text.CNC_Stop:0000000000000000 CNC_Stop
     /tmp/cclZJU8r.s:1478   .text.CNC_Limit_X:0000000000000000 $t
     /tmp/cclZJU8r.s:1484   .text.CNC_Limit_X:0000000000000000 CNC_Limit_X
     /tmp/cclZJU8r.s:1531   .text.CNC_Limit_Y:0000000000000000 $t
     /tmp/cclZJU8r.s:1537   .text.CNC_Limit_Y:0000000000000000 CNC_Limit_Y

UNDEFINED SYMBOLS
HAL_GPIO_ReadPin
HAL_GPIO_WritePin
WriteACK
