ARM GAS  /tmp/ccXasQuo.s 			page 1


   1              		.cpu cortex-m4
   2              		.arch armv7e-m
   3              		.fpu fpv4-sp-d16
   4              		.eabi_attribute 27, 1
   5              		.eabi_attribute 28, 1
   6              		.eabi_attribute 20, 1
   7              		.eabi_attribute 21, 1
   8              		.eabi_attribute 23, 3
   9              		.eabi_attribute 24, 1
  10              		.eabi_attribute 25, 1
  11              		.eabi_attribute 26, 1
  12              		.eabi_attribute 30, 1
  13              		.eabi_attribute 34, 1
  14              		.eabi_attribute 18, 4
  15              		.file	"cnc_core.c"
  16              		.text
  17              	.Ltext0:
  18              		.cfi_sections	.debug_frame
  19              		.section	.text.ihyp,"ax",%progbits
  20              		.align	1
  21              		.global	ihyp
  22              		.syntax unified
  23              		.thumb
  24              		.thumb_func
  26              	ihyp:
  27              	.LVL0:
  28              	.LFB288:
  29              		.file 1 "Core/Src/cnc_core.c"
   1:Core/Src/cnc_core.c **** 
   2:Core/Src/cnc_core.c **** //--- Francesco Osti 29/12/2022 ---//
   3:Core/Src/cnc_core.c **** 
   4:Core/Src/cnc_core.c **** #include "cnc_core.h"
   5:Core/Src/cnc_core.c **** #include "cnc_config.h"
   6:Core/Src/cnc_core.c **** #include "data_parser.h"
   7:Core/Src/cnc_core.c **** #include "main.h"
   8:Core/Src/cnc_core.c **** #include <stdbool.h>
   9:Core/Src/cnc_core.c **** #include <stdlib.h>
  10:Core/Src/cnc_core.c **** 
  11:Core/Src/cnc_core.c **** //very efficient way of approximating hypotenuse using integer numbers
  12:Core/Src/cnc_core.c **** extern inline int32_t ihyp(uint16_t x, uint16_t y){
  30              		.loc 1 12 51 view -0
  31              		.cfi_startproc
  32              		@ args = 0, pretend = 0, frame = 0
  33              		@ frame_needed = 0, uses_anonymous_args = 0
  34              		@ link register save eliminated.
  13:Core/Src/cnc_core.c ****     if(y > x){
  35              		.loc 1 13 5 view .LVU1
  36              		.loc 1 13 7 is_stmt 0 view .LVU2
  37 0000 8142     		cmp	r1, r0
  38 0002 06D9     		bls	.L2
  14:Core/Src/cnc_core.c ****         return (uint32_t) y + (((uint32_t) x * (uint32_t) x)/y)>>1;
  39              		.loc 1 14 9 is_stmt 1 view .LVU3
  40              		.loc 1 14 46 is_stmt 0 view .LVU4
  41 0004 00FB00F0 		mul	r0, r0, r0
  42              	.LVL1:
  43              		.loc 1 14 61 view .LVU5
  44 0008 B0FBF1F0 		udiv	r0, r0, r1
ARM GAS  /tmp/ccXasQuo.s 			page 2


  45              		.loc 1 14 29 view .LVU6
  46 000c 0144     		add	r1, r1, r0
  47              	.LVL2:
  48              		.loc 1 14 64 view .LVU7
  49 000e 4808     		lsrs	r0, r1, #1
  50 0010 7047     		bx	lr
  51              	.LVL3:
  52              	.L2:
  15:Core/Src/cnc_core.c ****     }
  16:Core/Src/cnc_core.c ****     else {
  17:Core/Src/cnc_core.c ****         return (uint32_t) x + (((uint32_t) y * (uint32_t) y)/x)>>1;
  53              		.loc 1 17 9 is_stmt 1 view .LVU8
  54              		.loc 1 17 46 is_stmt 0 view .LVU9
  55 0012 01FB01F1 		mul	r1, r1, r1
  56              	.LVL4:
  57              		.loc 1 17 61 view .LVU10
  58 0016 B1FBF0F1 		udiv	r1, r1, r0
  59              		.loc 1 17 29 view .LVU11
  60 001a 0844     		add	r0, r0, r1
  61              	.LVL5:
  62              		.loc 1 17 64 view .LVU12
  63 001c 4008     		lsrs	r0, r0, #1
  18:Core/Src/cnc_core.c ****     }
  19:Core/Src/cnc_core.c **** }
  64              		.loc 1 19 1 view .LVU13
  65 001e 7047     		bx	lr
  66              		.cfi_endproc
  67              	.LFE288:
  69              		.section	.text.CNC_Absolute,"ax",%progbits
  70              		.align	1
  71              		.global	CNC_Absolute
  72              		.syntax unified
  73              		.thumb
  74              		.thumb_func
  76              	CNC_Absolute:
  77              	.LVL6:
  78              	.LFB289:
  20:Core/Src/cnc_core.c **** 
  21:Core/Src/cnc_core.c **** void CNC_Absolute(HMI_info_t* info, TIM_HandleTypeDef *htimX, TIM_HandleTypeDef *htimY){
  79              		.loc 1 21 88 is_stmt 1 view -0
  80              		.cfi_startproc
  81              		@ args = 0, pretend = 0, frame = 16
  82              		@ frame_needed = 0, uses_anonymous_args = 0
  83              		.loc 1 21 88 is_stmt 0 view .LVU15
  84 0000 2DE9F043 		push	{r4, r5, r6, r7, r8, r9, lr}
  85              		.cfi_def_cfa_offset 28
  86              		.cfi_offset 4, -28
  87              		.cfi_offset 5, -24
  88              		.cfi_offset 6, -20
  89              		.cfi_offset 7, -16
  90              		.cfi_offset 8, -12
  91              		.cfi_offset 9, -8
  92              		.cfi_offset 14, -4
  93 0004 85B0     		sub	sp, sp, #20
  94              		.cfi_def_cfa_offset 48
  95 0006 0446     		mov	r4, r0
  96 0008 8946     		mov	r9, r1
ARM GAS  /tmp/ccXasQuo.s 			page 3


  97 000a 9046     		mov	r8, r2
  22:Core/Src/cnc_core.c **** 
  23:Core/Src/cnc_core.c ****     info->dirX = (info->pos.x < info->commanded.pos.x);
  98              		.loc 1 23 5 is_stmt 1 view .LVU16
  99              		.loc 1 23 28 is_stmt 0 view .LVU17
 100 000c 8288     		ldrh	r2, [r0, #4]
 101              	.LVL7:
 102              		.loc 1 23 52 view .LVU18
 103 000e 438A     		ldrh	r3, [r0, #18]
 104              		.loc 1 23 31 view .LVU19
 105 0010 9A42     		cmp	r2, r3
 106 0012 2CBF     		ite	cs
 107 0014 0022     		movcs	r2, #0
 108 0016 0122     		movcc	r2, #1
 109              		.loc 1 23 16 view .LVU20
 110 0018 0274     		strb	r2, [r0, #16]
  24:Core/Src/cnc_core.c ****     info->dirY = (info->pos.y < info->commanded.pos.y);
 111              		.loc 1 24 5 is_stmt 1 view .LVU21
 112              		.loc 1 24 28 is_stmt 0 view .LVU22
 113 001a C388     		ldrh	r3, [r0, #6]
 114              		.loc 1 24 52 view .LVU23
 115 001c 818A     		ldrh	r1, [r0, #20]
 116              	.LVL8:
 117              		.loc 1 24 31 view .LVU24
 118 001e 8B42     		cmp	r3, r1
 119 0020 2CBF     		ite	cs
 120 0022 0023     		movcs	r3, #0
 121 0024 0123     		movcc	r3, #1
 122              		.loc 1 24 16 view .LVU25
 123 0026 4374     		strb	r3, [r0, #17]
  25:Core/Src/cnc_core.c **** 
  26:Core/Src/cnc_core.c ****     HAL_GPIO_WritePin(dirX_Port, dirX_Pin, info->dirX);
 124              		.loc 1 26 5 is_stmt 1 view .LVU26
 125 0028 3F4D     		ldr	r5, .L17
 126 002a 4FF48071 		mov	r1, #256
 127 002e 2846     		mov	r0, r5
 128              	.LVL9:
 129              		.loc 1 26 5 is_stmt 0 view .LVU27
 130 0030 FFF7FEFF 		bl	HAL_GPIO_WritePin
 131              	.LVL10:
  27:Core/Src/cnc_core.c ****     HAL_GPIO_WritePin(dirY_Port, dirY_Pin, info->dirY);
 132              		.loc 1 27 5 is_stmt 1 view .LVU28
 133 0034 627C     		ldrb	r2, [r4, #17]	@ zero_extendqisi2
 134 0036 4FF40071 		mov	r1, #512
 135 003a 2846     		mov	r0, r5
 136 003c FFF7FEFF 		bl	HAL_GPIO_WritePin
 137              	.LVL11:
  28:Core/Src/cnc_core.c **** 
  29:Core/Src/cnc_core.c ****     uint16_t dX = info->dirX ? (info->commanded.pos.x - info->pos.x) : (info->pos.x - info->command
 138              		.loc 1 29 5 view .LVU29
 139              		.loc 1 29 23 is_stmt 0 view .LVU30
 140 0040 237C     		ldrb	r3, [r4, #16]	@ zero_extendqisi2
 141              		.loc 1 29 14 view .LVU31
 142 0042 002B     		cmp	r3, #0
 143 0044 51D0     		beq	.L5
 144              		.loc 1 29 52 discriminator 1 view .LVU32
 145 0046 668A     		ldrh	r6, [r4, #18]
ARM GAS  /tmp/ccXasQuo.s 			page 4


 146              		.loc 1 29 66 discriminator 1 view .LVU33
 147 0048 A388     		ldrh	r3, [r4, #4]
 148              		.loc 1 29 14 discriminator 1 view .LVU34
 149 004a F61A     		subs	r6, r6, r3
 150 004c B6B2     		uxth	r6, r6
 151              	.L6:
 152              	.LVL12:
  30:Core/Src/cnc_core.c ****     uint16_t dY = info->dirY ? (info->commanded.pos.y - info->pos.y) : (info->pos.y - info->command
 153              		.loc 1 30 5 is_stmt 1 discriminator 4 view .LVU35
 154              		.loc 1 30 23 is_stmt 0 discriminator 4 view .LVU36
 155 004e 637C     		ldrb	r3, [r4, #17]	@ zero_extendqisi2
 156              		.loc 1 30 14 discriminator 4 view .LVU37
 157 0050 002B     		cmp	r3, #0
 158 0052 4FD0     		beq	.L7
 159              		.loc 1 30 52 discriminator 1 view .LVU38
 160 0054 A78A     		ldrh	r7, [r4, #20]
 161              		.loc 1 30 66 discriminator 1 view .LVU39
 162 0056 E388     		ldrh	r3, [r4, #6]
 163              		.loc 1 30 14 discriminator 1 view .LVU40
 164 0058 FF1A     		subs	r7, r7, r3
 165 005a BFB2     		uxth	r7, r7
 166              	.L8:
 167              	.LVL13:
  31:Core/Src/cnc_core.c **** 
  32:Core/Src/cnc_core.c ****     bool runX = dX > 0;
 168              		.loc 1 32 5 is_stmt 1 discriminator 4 view .LVU41
  33:Core/Src/cnc_core.c ****     bool runY = dY > 0;
 169              		.loc 1 33 5 discriminator 4 view .LVU42
  34:Core/Src/cnc_core.c **** 
  35:Core/Src/cnc_core.c ****     int32_t den = (int32_t) ihyp(dX, dY) * freqX_1mm_min;
 170              		.loc 1 35 5 discriminator 4 view .LVU43
 171              	.LBB4:
 172              	.LBI4:
  12:Core/Src/cnc_core.c ****     if(y > x){
 173              		.loc 1 12 23 discriminator 4 view .LVU44
 174              	.LBB5:
  13:Core/Src/cnc_core.c ****         return (uint32_t) y + (((uint32_t) x * (uint32_t) x)/y)>>1;
 175              		.loc 1 13 5 discriminator 4 view .LVU45
  13:Core/Src/cnc_core.c ****         return (uint32_t) y + (((uint32_t) x * (uint32_t) x)/y)>>1;
 176              		.loc 1 13 7 is_stmt 0 discriminator 4 view .LVU46
 177 005c BE42     		cmp	r6, r7
 178 005e 4ED2     		bcs	.L9
  14:Core/Src/cnc_core.c ****     }
 179              		.loc 1 14 9 is_stmt 1 view .LVU47
  14:Core/Src/cnc_core.c ****     }
 180              		.loc 1 14 46 is_stmt 0 view .LVU48
 181 0060 06FB06F5 		mul	r5, r6, r6
  14:Core/Src/cnc_core.c ****     }
 182              		.loc 1 14 61 view .LVU49
 183 0064 B5FBF7F5 		udiv	r5, r5, r7
  14:Core/Src/cnc_core.c ****     }
 184              		.loc 1 14 29 view .LVU50
 185 0068 3D44     		add	r5, r5, r7
  14:Core/Src/cnc_core.c ****     }
 186              		.loc 1 14 64 view .LVU51
 187 006a 6D08     		lsrs	r5, r5, #1
 188              	.L10:
ARM GAS  /tmp/ccXasQuo.s 			page 5


 189              	.LVL14:
  14:Core/Src/cnc_core.c ****     }
 190              		.loc 1 14 64 view .LVU52
 191              	.LBE5:
 192              	.LBE4:
 193              		.loc 1 35 13 view .LVU53
 194 006c 4FF6C163 		movw	r3, #65217
 195 0070 03FB05F5 		mul	r5, r3, r5
 196              	.LVL15:
  36:Core/Src/cnc_core.c ****     info->pulseLenght.x = (uint16_t) div(den, (int32_t) info->feed * (int32_t) dX).quot;
 197              		.loc 1 36 5 is_stmt 1 view .LVU54
 198              		.loc 1 36 61 is_stmt 0 view .LVU55
 199 0074 E28A     		ldrh	r2, [r4, #22]
 200              		.loc 1 36 38 view .LVU56
 201 0076 06FB02F2 		mul	r2, r6, r2
 202 007a 2946     		mov	r1, r5
 203 007c 6846     		mov	r0, sp
 204 007e FFF7FEFF 		bl	div
 205              	.LVL16:
 206              		.loc 1 36 27 view .LVU57
 207 0082 BDF90030 		ldrsh	r3, [sp]
 208              		.loc 1 36 25 view .LVU58
 209 0086 2381     		strh	r3, [r4, #8]	@ movhi
  37:Core/Src/cnc_core.c ****     info->pulseLenght.y = (uint16_t) div(den, (int32_t) info->feed * (int32_t) dY).quot;
 210              		.loc 1 37 5 is_stmt 1 view .LVU59
 211              		.loc 1 37 61 is_stmt 0 view .LVU60
 212 0088 E28A     		ldrh	r2, [r4, #22]
 213              		.loc 1 37 38 view .LVU61
 214 008a 07FB02F2 		mul	r2, r7, r2
 215 008e 2946     		mov	r1, r5
 216 0090 02A8     		add	r0, sp, #8
 217 0092 FFF7FEFF 		bl	div
 218              	.LVL17:
 219              		.loc 1 37 27 view .LVU62
 220 0096 BDF90830 		ldrsh	r3, [sp, #8]
 221              		.loc 1 37 25 view .LVU63
 222 009a 6381     		strh	r3, [r4, #10]	@ movhi
  38:Core/Src/cnc_core.c **** 
  39:Core/Src/cnc_core.c ****     if(!HAL_GPIO_ReadPin(SWSTOP_GPIO_Port, SWSTOP_Pin)){
 223              		.loc 1 39 5 is_stmt 1 view .LVU64
 224              		.loc 1 39 9 is_stmt 0 view .LVU65
 225 009c 4021     		movs	r1, #64
 226 009e 4FF09040 		mov	r0, #1207959552
 227 00a2 FFF7FEFF 		bl	HAL_GPIO_ReadPin
 228              	.LVL18:
 229              		.loc 1 39 7 view .LVU66
 230 00a6 C8B9     		cbnz	r0, .L11
  40:Core/Src/cnc_core.c ****         if(runX){
 231              		.loc 1 40 9 is_stmt 1 view .LVU67
 232              		.loc 1 40 11 is_stmt 0 view .LVU68
 233 00a8 86B3     		cbz	r6, .L12
  41:Core/Src/cnc_core.c ****             htimX->Instance->CR1 &= ~TIM_CR1_OPM;
 234              		.loc 1 41 13 is_stmt 1 view .LVU69
 235              		.loc 1 41 18 is_stmt 0 view .LVU70
 236 00aa D9F80020 		ldr	r2, [r9]
 237              		.loc 1 41 34 view .LVU71
 238 00ae 1368     		ldr	r3, [r2]
ARM GAS  /tmp/ccXasQuo.s 			page 6


 239 00b0 23F00803 		bic	r3, r3, #8
 240 00b4 1360     		str	r3, [r2]
  42:Core/Src/cnc_core.c ****             htimX->Instance->CR1 |= TIM_CR1_CEN;
 241              		.loc 1 42 13 is_stmt 1 view .LVU72
 242              		.loc 1 42 18 is_stmt 0 view .LVU73
 243 00b6 D9F80020 		ldr	r2, [r9]
 244              		.loc 1 42 34 view .LVU74
 245 00ba 1368     		ldr	r3, [r2]
 246 00bc 43F00103 		orr	r3, r3, #1
 247 00c0 1360     		str	r3, [r2]
 248              	.L13:
  43:Core/Src/cnc_core.c ****         }
  44:Core/Src/cnc_core.c ****         else
  45:Core/Src/cnc_core.c ****             htimX->Instance->CR1 |= TIM_CR1_OPM;
  46:Core/Src/cnc_core.c **** 
  47:Core/Src/cnc_core.c ****         if(runY){
 249              		.loc 1 47 9 is_stmt 1 view .LVU75
 250              		.loc 1 47 11 is_stmt 0 view .LVU76
 251 00c2 57B3     		cbz	r7, .L14
  48:Core/Src/cnc_core.c ****             htimY->Instance->CR1 &= ~TIM_CR1_OPM; 
 252              		.loc 1 48 13 is_stmt 1 view .LVU77
 253              		.loc 1 48 18 is_stmt 0 view .LVU78
 254 00c4 D8F80020 		ldr	r2, [r8]
 255              		.loc 1 48 34 view .LVU79
 256 00c8 1368     		ldr	r3, [r2]
 257 00ca 23F00803 		bic	r3, r3, #8
 258 00ce 1360     		str	r3, [r2]
  49:Core/Src/cnc_core.c ****             htimY->Instance->CR1 |= TIM_CR1_CEN;
 259              		.loc 1 49 13 is_stmt 1 view .LVU80
 260              		.loc 1 49 18 is_stmt 0 view .LVU81
 261 00d0 D8F80020 		ldr	r2, [r8]
 262              		.loc 1 49 34 view .LVU82
 263 00d4 1368     		ldr	r3, [r2]
 264 00d6 43F00103 		orr	r3, r3, #1
 265 00da 1360     		str	r3, [r2]
 266              	.L11:
  50:Core/Src/cnc_core.c ****         }
  51:Core/Src/cnc_core.c ****         else
  52:Core/Src/cnc_core.c ****             htimY->Instance->CR1 |= TIM_CR1_OPM;          
  53:Core/Src/cnc_core.c ****     }
  54:Core/Src/cnc_core.c **** 
  55:Core/Src/cnc_core.c ****     if(!runX && !runY)
 267              		.loc 1 55 5 is_stmt 1 view .LVU83
 268              		.loc 1 55 7 is_stmt 0 view .LVU84
 269 00dc 16B9     		cbnz	r6, .L4
 270              		.loc 1 55 14 discriminator 1 view .LVU85
 271 00de 0FB9     		cbnz	r7, .L4
  56:Core/Src/cnc_core.c ****         info->move = HMI_Move_Done; 
 272              		.loc 1 56 9 is_stmt 1 view .LVU86
 273              		.loc 1 56 20 is_stmt 0 view .LVU87
 274 00e0 0323     		movs	r3, #3
 275 00e2 A370     		strb	r3, [r4, #2]
 276              	.L4:
  57:Core/Src/cnc_core.c **** }
 277              		.loc 1 57 1 view .LVU88
 278 00e4 05B0     		add	sp, sp, #20
 279              		.cfi_remember_state
ARM GAS  /tmp/ccXasQuo.s 			page 7


 280              		.cfi_def_cfa_offset 28
 281              		@ sp needed
 282 00e6 BDE8F083 		pop	{r4, r5, r6, r7, r8, r9, pc}
 283              	.LVL19:
 284              	.L5:
 285              		.cfi_restore_state
  29:Core/Src/cnc_core.c ****     uint16_t dY = info->dirY ? (info->commanded.pos.y - info->pos.y) : (info->pos.y - info->command
 286              		.loc 1 29 82 discriminator 2 view .LVU89
 287 00ea A688     		ldrh	r6, [r4, #4]
  29:Core/Src/cnc_core.c ****     uint16_t dY = info->dirY ? (info->commanded.pos.y - info->pos.y) : (info->pos.y - info->command
 288              		.loc 1 29 106 discriminator 2 view .LVU90
 289 00ec 638A     		ldrh	r3, [r4, #18]
  29:Core/Src/cnc_core.c ****     uint16_t dY = info->dirY ? (info->commanded.pos.y - info->pos.y) : (info->pos.y - info->command
 290              		.loc 1 29 14 discriminator 2 view .LVU91
 291 00ee F61A     		subs	r6, r6, r3
 292 00f0 B6B2     		uxth	r6, r6
 293 00f2 ACE7     		b	.L6
 294              	.LVL20:
 295              	.L7:
  30:Core/Src/cnc_core.c **** 
 296              		.loc 1 30 82 discriminator 2 view .LVU92
 297 00f4 E788     		ldrh	r7, [r4, #6]
  30:Core/Src/cnc_core.c **** 
 298              		.loc 1 30 106 discriminator 2 view .LVU93
 299 00f6 A38A     		ldrh	r3, [r4, #20]
  30:Core/Src/cnc_core.c **** 
 300              		.loc 1 30 14 discriminator 2 view .LVU94
 301 00f8 FF1A     		subs	r7, r7, r3
 302 00fa BFB2     		uxth	r7, r7
 303 00fc AEE7     		b	.L8
 304              	.LVL21:
 305              	.L9:
 306              	.LBB7:
 307              	.LBB6:
  17:Core/Src/cnc_core.c ****     }
 308              		.loc 1 17 9 is_stmt 1 view .LVU95
  17:Core/Src/cnc_core.c ****     }
 309              		.loc 1 17 46 is_stmt 0 view .LVU96
 310 00fe 07FB07F5 		mul	r5, r7, r7
  17:Core/Src/cnc_core.c ****     }
 311              		.loc 1 17 61 view .LVU97
 312 0102 B5FBF6F5 		udiv	r5, r5, r6
  17:Core/Src/cnc_core.c ****     }
 313              		.loc 1 17 29 view .LVU98
 314 0106 3544     		add	r5, r5, r6
  17:Core/Src/cnc_core.c ****     }
 315              		.loc 1 17 64 view .LVU99
 316 0108 6D08     		lsrs	r5, r5, #1
 317 010a AFE7     		b	.L10
 318              	.LVL22:
 319              	.L12:
  17:Core/Src/cnc_core.c ****     }
 320              		.loc 1 17 64 view .LVU100
 321              	.LBE6:
 322              	.LBE7:
  45:Core/Src/cnc_core.c **** 
 323              		.loc 1 45 13 is_stmt 1 view .LVU101
ARM GAS  /tmp/ccXasQuo.s 			page 8


  45:Core/Src/cnc_core.c **** 
 324              		.loc 1 45 18 is_stmt 0 view .LVU102
 325 010c D9F80020 		ldr	r2, [r9]
  45:Core/Src/cnc_core.c **** 
 326              		.loc 1 45 34 view .LVU103
 327 0110 1368     		ldr	r3, [r2]
 328 0112 43F00803 		orr	r3, r3, #8
 329 0116 1360     		str	r3, [r2]
 330 0118 D3E7     		b	.L13
 331              	.L14:
  52:Core/Src/cnc_core.c ****     }
 332              		.loc 1 52 13 is_stmt 1 view .LVU104
  52:Core/Src/cnc_core.c ****     }
 333              		.loc 1 52 18 is_stmt 0 view .LVU105
 334 011a D8F80020 		ldr	r2, [r8]
  52:Core/Src/cnc_core.c ****     }
 335              		.loc 1 52 34 view .LVU106
 336 011e 1368     		ldr	r3, [r2]
 337 0120 43F00803 		orr	r3, r3, #8
 338 0124 1360     		str	r3, [r2]
 339 0126 D9E7     		b	.L11
 340              	.L18:
 341              		.align	2
 342              	.L17:
 343 0128 000C0048 		.word	1207962624
 344              		.cfi_endproc
 345              	.LFE289:
 347              		.section	.text.CNC_Jog,"ax",%progbits
 348              		.align	1
 349              		.global	CNC_Jog
 350              		.syntax unified
 351              		.thumb
 352              		.thumb_func
 354              	CNC_Jog:
 355              	.LVL23:
 356              	.LFB290:
  58:Core/Src/cnc_core.c **** 
  59:Core/Src/cnc_core.c **** void CNC_Jog(HMI_info_t* info, TIM_HandleTypeDef *htimX, TIM_HandleTypeDef *htimY){
 357              		.loc 1 59 83 is_stmt 1 view -0
 358              		.cfi_startproc
 359              		@ args = 0, pretend = 0, frame = 16
 360              		@ frame_needed = 0, uses_anonymous_args = 0
 361              		.loc 1 59 83 is_stmt 0 view .LVU108
 362 0000 F0B5     		push	{r4, r5, r6, r7, lr}
 363              		.cfi_def_cfa_offset 20
 364              		.cfi_offset 4, -20
 365              		.cfi_offset 5, -16
 366              		.cfi_offset 6, -12
 367              		.cfi_offset 7, -8
 368              		.cfi_offset 14, -4
 369 0002 85B0     		sub	sp, sp, #20
 370              		.cfi_def_cfa_offset 40
 371 0004 0446     		mov	r4, r0
 372 0006 0E46     		mov	r6, r1
 373 0008 1546     		mov	r5, r2
  60:Core/Src/cnc_core.c **** 
  61:Core/Src/cnc_core.c ****     info->dirX = (info->commanded.speed.x > 0);
ARM GAS  /tmp/ccXasQuo.s 			page 9


 374              		.loc 1 61 5 is_stmt 1 view .LVU109
 375              		.loc 1 61 40 is_stmt 0 view .LVU110
 376 000a B0F91230 		ldrsh	r3, [r0, #18]
 377              		.loc 1 61 43 view .LVU111
 378 000e 002B     		cmp	r3, #0
 379 0010 D4BF     		ite	le
 380 0012 0022     		movle	r2, #0
 381              	.LVL24:
 382              		.loc 1 61 43 view .LVU112
 383 0014 0122     		movgt	r2, #1
 384              		.loc 1 61 16 view .LVU113
 385 0016 0274     		strb	r2, [r0, #16]
  62:Core/Src/cnc_core.c ****     info->dirY = (info->commanded.speed.y > 0);
 386              		.loc 1 62 5 is_stmt 1 view .LVU114
 387              		.loc 1 62 40 is_stmt 0 view .LVU115
 388 0018 B0F91430 		ldrsh	r3, [r0, #20]
 389              		.loc 1 62 43 view .LVU116
 390 001c 002B     		cmp	r3, #0
 391 001e D4BF     		ite	le
 392 0020 0023     		movle	r3, #0
 393 0022 0123     		movgt	r3, #1
 394              		.loc 1 62 16 view .LVU117
 395 0024 4374     		strb	r3, [r0, #17]
  63:Core/Src/cnc_core.c **** 
  64:Core/Src/cnc_core.c ****     HAL_GPIO_WritePin(dirX_Port, dirX_Pin, info->dirX);
 396              		.loc 1 64 5 is_stmt 1 view .LVU118
 397 0026 264F     		ldr	r7, .L27
 398 0028 4FF48071 		mov	r1, #256
 399              	.LVL25:
 400              		.loc 1 64 5 is_stmt 0 view .LVU119
 401 002c 3846     		mov	r0, r7
 402              	.LVL26:
 403              		.loc 1 64 5 view .LVU120
 404 002e FFF7FEFF 		bl	HAL_GPIO_WritePin
 405              	.LVL27:
  65:Core/Src/cnc_core.c ****     HAL_GPIO_WritePin(dirY_Port, dirY_Pin, info->dirY);
 406              		.loc 1 65 5 is_stmt 1 view .LVU121
 407 0032 627C     		ldrb	r2, [r4, #17]	@ zero_extendqisi2
 408 0034 4FF40071 		mov	r1, #512
 409 0038 3846     		mov	r0, r7
 410 003a FFF7FEFF 		bl	HAL_GPIO_WritePin
 411              	.LVL28:
  66:Core/Src/cnc_core.c **** 
  67:Core/Src/cnc_core.c ****     if(info->commanded.speed.x != 0){
 412              		.loc 1 67 5 view .LVU122
 413              		.loc 1 67 29 is_stmt 0 view .LVU123
 414 003e B4F91220 		ldrsh	r2, [r4, #18]
 415              		.loc 1 67 7 view .LVU124
 416 0042 72B9     		cbnz	r2, .L25
  68:Core/Src/cnc_core.c ****         info->pulseLenght.x = (uint16_t) div(freqX_1mm_min, abs(info->commanded.speed.x)).quot;
  69:Core/Src/cnc_core.c ****         htimX->Instance->CR1 &= ~TIM_CR1_OPM;
  70:Core/Src/cnc_core.c ****         htimX->Instance->CR1 |= TIM_CR1_CEN;
  71:Core/Src/cnc_core.c ****     }
  72:Core/Src/cnc_core.c ****     else
  73:Core/Src/cnc_core.c ****         htimX->Instance->CR1 |= TIM_CR1_OPM;
 417              		.loc 1 73 9 is_stmt 1 view .LVU125
 418              		.loc 1 73 14 is_stmt 0 view .LVU126
ARM GAS  /tmp/ccXasQuo.s 			page 10


 419 0044 3268     		ldr	r2, [r6]
 420              		.loc 1 73 30 view .LVU127
 421 0046 1368     		ldr	r3, [r2]
 422 0048 43F00803 		orr	r3, r3, #8
 423 004c 1360     		str	r3, [r2]
 424              	.L21:
  74:Core/Src/cnc_core.c **** 
  75:Core/Src/cnc_core.c ****     if(info->commanded.speed.y != 0){  
 425              		.loc 1 75 5 is_stmt 1 view .LVU128
 426              		.loc 1 75 29 is_stmt 0 view .LVU129
 427 004e B4F91420 		ldrsh	r2, [r4, #20]
 428              		.loc 1 75 7 view .LVU130
 429 0052 EAB9     		cbnz	r2, .L26
  76:Core/Src/cnc_core.c ****         info->pulseLenght.y = (uint16_t) div(freqY_1mm_min, abs(info->commanded.speed.y)).quot;
  77:Core/Src/cnc_core.c ****         htimY->Instance->CR1 &= ~TIM_CR1_OPM; 
  78:Core/Src/cnc_core.c ****         htimY->Instance->CR1 |= TIM_CR1_CEN;
  79:Core/Src/cnc_core.c ****     }
  80:Core/Src/cnc_core.c ****     else
  81:Core/Src/cnc_core.c ****         htimY->Instance->CR1 |= TIM_CR1_OPM; 
 430              		.loc 1 81 9 is_stmt 1 view .LVU131
 431              		.loc 1 81 14 is_stmt 0 view .LVU132
 432 0054 2A68     		ldr	r2, [r5]
 433              		.loc 1 81 30 view .LVU133
 434 0056 1368     		ldr	r3, [r2]
 435 0058 43F00803 		orr	r3, r3, #8
 436 005c 1360     		str	r3, [r2]
 437              	.L19:
  82:Core/Src/cnc_core.c **** }
 438              		.loc 1 82 1 view .LVU134
 439 005e 05B0     		add	sp, sp, #20
 440              		.cfi_remember_state
 441              		.cfi_def_cfa_offset 20
 442              		@ sp needed
 443 0060 F0BD     		pop	{r4, r5, r6, r7, pc}
 444              	.LVL29:
 445              	.L25:
 446              		.cfi_restore_state
  68:Core/Src/cnc_core.c ****         htimX->Instance->CR1 &= ~TIM_CR1_OPM;
 447              		.loc 1 68 9 is_stmt 1 view .LVU135
  68:Core/Src/cnc_core.c ****         htimX->Instance->CR1 &= ~TIM_CR1_OPM;
 448              		.loc 1 68 61 is_stmt 0 view .LVU136
 449 0062 002A     		cmp	r2, #0
 450 0064 B8BF     		it	lt
 451 0066 5242     		rsblt	r2, r2, #0
  68:Core/Src/cnc_core.c ****         htimX->Instance->CR1 &= ~TIM_CR1_OPM;
 452              		.loc 1 68 42 view .LVU137
 453 0068 92B2     		uxth	r2, r2
 454 006a 4FF6C161 		movw	r1, #65217
 455 006e 6846     		mov	r0, sp
 456 0070 FFF7FEFF 		bl	div
 457              	.LVL30:
  68:Core/Src/cnc_core.c ****         htimX->Instance->CR1 &= ~TIM_CR1_OPM;
 458              		.loc 1 68 31 view .LVU138
 459 0074 BDF90030 		ldrsh	r3, [sp]
  68:Core/Src/cnc_core.c ****         htimX->Instance->CR1 &= ~TIM_CR1_OPM;
 460              		.loc 1 68 29 view .LVU139
 461 0078 2381     		strh	r3, [r4, #8]	@ movhi
ARM GAS  /tmp/ccXasQuo.s 			page 11


  69:Core/Src/cnc_core.c ****         htimX->Instance->CR1 |= TIM_CR1_CEN;
 462              		.loc 1 69 9 is_stmt 1 view .LVU140
  69:Core/Src/cnc_core.c ****         htimX->Instance->CR1 |= TIM_CR1_CEN;
 463              		.loc 1 69 14 is_stmt 0 view .LVU141
 464 007a 3268     		ldr	r2, [r6]
  69:Core/Src/cnc_core.c ****         htimX->Instance->CR1 |= TIM_CR1_CEN;
 465              		.loc 1 69 30 view .LVU142
 466 007c 1368     		ldr	r3, [r2]
 467 007e 23F00803 		bic	r3, r3, #8
 468 0082 1360     		str	r3, [r2]
  70:Core/Src/cnc_core.c ****     }
 469              		.loc 1 70 9 is_stmt 1 view .LVU143
  70:Core/Src/cnc_core.c ****     }
 470              		.loc 1 70 14 is_stmt 0 view .LVU144
 471 0084 3268     		ldr	r2, [r6]
  70:Core/Src/cnc_core.c ****     }
 472              		.loc 1 70 30 view .LVU145
 473 0086 1368     		ldr	r3, [r2]
 474 0088 43F00103 		orr	r3, r3, #1
 475 008c 1360     		str	r3, [r2]
 476 008e DEE7     		b	.L21
 477              	.L26:
  76:Core/Src/cnc_core.c ****         htimY->Instance->CR1 &= ~TIM_CR1_OPM; 
 478              		.loc 1 76 9 is_stmt 1 view .LVU146
  76:Core/Src/cnc_core.c ****         htimY->Instance->CR1 &= ~TIM_CR1_OPM; 
 479              		.loc 1 76 61 is_stmt 0 view .LVU147
 480 0090 002A     		cmp	r2, #0
 481 0092 B8BF     		it	lt
 482 0094 5242     		rsblt	r2, r2, #0
  76:Core/Src/cnc_core.c ****         htimY->Instance->CR1 &= ~TIM_CR1_OPM; 
 483              		.loc 1 76 42 view .LVU148
 484 0096 92B2     		uxth	r2, r2
 485 0098 4FF6C161 		movw	r1, #65217
 486 009c 02A8     		add	r0, sp, #8
 487 009e FFF7FEFF 		bl	div
 488              	.LVL31:
  76:Core/Src/cnc_core.c ****         htimY->Instance->CR1 &= ~TIM_CR1_OPM; 
 489              		.loc 1 76 31 view .LVU149
 490 00a2 BDF90830 		ldrsh	r3, [sp, #8]
  76:Core/Src/cnc_core.c ****         htimY->Instance->CR1 &= ~TIM_CR1_OPM; 
 491              		.loc 1 76 29 view .LVU150
 492 00a6 6381     		strh	r3, [r4, #10]	@ movhi
  77:Core/Src/cnc_core.c ****         htimY->Instance->CR1 |= TIM_CR1_CEN;
 493              		.loc 1 77 9 is_stmt 1 view .LVU151
  77:Core/Src/cnc_core.c ****         htimY->Instance->CR1 |= TIM_CR1_CEN;
 494              		.loc 1 77 14 is_stmt 0 view .LVU152
 495 00a8 2A68     		ldr	r2, [r5]
  77:Core/Src/cnc_core.c ****         htimY->Instance->CR1 |= TIM_CR1_CEN;
 496              		.loc 1 77 30 view .LVU153
 497 00aa 1368     		ldr	r3, [r2]
 498 00ac 23F00803 		bic	r3, r3, #8
 499 00b0 1360     		str	r3, [r2]
  78:Core/Src/cnc_core.c ****     }
 500              		.loc 1 78 9 is_stmt 1 view .LVU154
  78:Core/Src/cnc_core.c ****     }
 501              		.loc 1 78 14 is_stmt 0 view .LVU155
 502 00b2 2A68     		ldr	r2, [r5]
ARM GAS  /tmp/ccXasQuo.s 			page 12


  78:Core/Src/cnc_core.c ****     }
 503              		.loc 1 78 30 view .LVU156
 504 00b4 1368     		ldr	r3, [r2]
 505 00b6 43F00103 		orr	r3, r3, #1
 506 00ba 1360     		str	r3, [r2]
 507 00bc CFE7     		b	.L19
 508              	.L28:
 509 00be 00BF     		.align	2
 510              	.L27:
 511 00c0 000C0048 		.word	1207962624
 512              		.cfi_endproc
 513              	.LFE290:
 515              		.section	.text.CNC_TIM_Callback_X,"ax",%progbits
 516              		.align	1
 517              		.global	CNC_TIM_Callback_X
 518              		.syntax unified
 519              		.thumb
 520              		.thumb_func
 522              	CNC_TIM_Callback_X:
 523              	.LVL32:
 524              	.LFB291:
  83:Core/Src/cnc_core.c **** 
  84:Core/Src/cnc_core.c **** extern inline void CNC_TIM_Callback_X(HMI_info_t* info, TIM_HandleTypeDef *htimX){
 525              		.loc 1 84 82 is_stmt 1 view -0
 526              		.cfi_startproc
 527              		@ args = 0, pretend = 0, frame = 0
 528              		@ frame_needed = 0, uses_anonymous_args = 0
 529              		@ link register save eliminated.
  85:Core/Src/cnc_core.c ****     htimX->Instance->ARR = info->pulseLenght.x;
 530              		.loc 1 85 5 view .LVU158
 531              		.loc 1 85 10 is_stmt 0 view .LVU159
 532 0000 0B68     		ldr	r3, [r1]
 533              		.loc 1 85 45 view .LVU160
 534 0002 B0F90820 		ldrsh	r2, [r0, #8]
 535              		.loc 1 85 26 view .LVU161
 536 0006 DA62     		str	r2, [r3, #44]
  86:Core/Src/cnc_core.c ****     htimX->Instance->CCR3 = ((info->pulseLenght.x)>>1);
 537              		.loc 1 86 5 is_stmt 1 view .LVU162
 538              		.loc 1 86 48 is_stmt 0 view .LVU163
 539 0008 B0F90830 		ldrsh	r3, [r0, #8]
 540              		.loc 1 86 10 view .LVU164
 541 000c 0A68     		ldr	r2, [r1]
 542              		.loc 1 86 51 view .LVU165
 543 000e 5B10     		asrs	r3, r3, #1
 544              		.loc 1 86 27 view .LVU166
 545 0010 D363     		str	r3, [r2, #60]
  87:Core/Src/cnc_core.c **** 
  88:Core/Src/cnc_core.c ****     if(info->dirX){
 546              		.loc 1 88 5 is_stmt 1 view .LVU167
 547              		.loc 1 88 12 is_stmt 0 view .LVU168
 548 0012 037C     		ldrb	r3, [r0, #16]	@ zero_extendqisi2
 549              		.loc 1 88 7 view .LVU169
 550 0014 6BB1     		cbz	r3, .L30
  89:Core/Src/cnc_core.c ****         if(info->pulsesCnt.x == stepX_01mm-1){
 551              		.loc 1 89 9 is_stmt 1 view .LVU170
 552              		.loc 1 89 27 is_stmt 0 view .LVU171
 553 0016 8389     		ldrh	r3, [r0, #12]
ARM GAS  /tmp/ccXasQuo.s 			page 13


 554              		.loc 1 89 11 view .LVU172
 555 0018 032B     		cmp	r3, #3
 556 001a 02D0     		beq	.L34
  90:Core/Src/cnc_core.c ****             info->pulsesCnt.x = 0;
  91:Core/Src/cnc_core.c ****             info->pos.x++;
  92:Core/Src/cnc_core.c ****             info->update = true;
  93:Core/Src/cnc_core.c ****         }
  94:Core/Src/cnc_core.c ****         else
  95:Core/Src/cnc_core.c ****             info->pulsesCnt.x++;
 557              		.loc 1 95 13 is_stmt 1 view .LVU173
 558              		.loc 1 95 30 is_stmt 0 view .LVU174
 559 001c 0133     		adds	r3, r3, #1
 560 001e 8381     		strh	r3, [r0, #12]	@ movhi
 561 0020 7047     		bx	lr
 562              	.L34:
  90:Core/Src/cnc_core.c ****             info->pulsesCnt.x = 0;
 563              		.loc 1 90 13 is_stmt 1 view .LVU175
  90:Core/Src/cnc_core.c ****             info->pulsesCnt.x = 0;
 564              		.loc 1 90 31 is_stmt 0 view .LVU176
 565 0022 0023     		movs	r3, #0
 566 0024 8381     		strh	r3, [r0, #12]	@ movhi
  91:Core/Src/cnc_core.c ****             info->update = true;
 567              		.loc 1 91 13 is_stmt 1 view .LVU177
  91:Core/Src/cnc_core.c ****             info->update = true;
 568              		.loc 1 91 22 is_stmt 0 view .LVU178
 569 0026 8388     		ldrh	r3, [r0, #4]
  91:Core/Src/cnc_core.c ****             info->update = true;
 570              		.loc 1 91 24 view .LVU179
 571 0028 0133     		adds	r3, r3, #1
 572 002a 8380     		strh	r3, [r0, #4]	@ movhi
  92:Core/Src/cnc_core.c ****         }
 573              		.loc 1 92 13 is_stmt 1 view .LVU180
  92:Core/Src/cnc_core.c ****         }
 574              		.loc 1 92 26 is_stmt 0 view .LVU181
 575 002c 0123     		movs	r3, #1
 576 002e 8376     		strb	r3, [r0, #26]
 577 0030 7047     		bx	lr
 578              	.L30:
  96:Core/Src/cnc_core.c ****     }
  97:Core/Src/cnc_core.c ****     else{
  98:Core/Src/cnc_core.c ****         if(info->pulsesCnt.x == 0){
 579              		.loc 1 98 9 is_stmt 1 view .LVU182
 580              		.loc 1 98 27 is_stmt 0 view .LVU183
 581 0032 8389     		ldrh	r3, [r0, #12]
 582              		.loc 1 98 11 view .LVU184
 583 0034 3BB9     		cbnz	r3, .L33
  99:Core/Src/cnc_core.c ****             info->pulsesCnt.x = 3;
 584              		.loc 1 99 13 is_stmt 1 view .LVU185
 585              		.loc 1 99 31 is_stmt 0 view .LVU186
 586 0036 0323     		movs	r3, #3
 587 0038 8381     		strh	r3, [r0, #12]	@ movhi
 100:Core/Src/cnc_core.c ****             info->pos.x--;
 588              		.loc 1 100 13 is_stmt 1 view .LVU187
 589              		.loc 1 100 22 is_stmt 0 view .LVU188
 590 003a 8388     		ldrh	r3, [r0, #4]
 591              		.loc 1 100 24 view .LVU189
 592 003c 013B     		subs	r3, r3, #1
ARM GAS  /tmp/ccXasQuo.s 			page 14


 593 003e 8380     		strh	r3, [r0, #4]	@ movhi
 101:Core/Src/cnc_core.c ****             info->update = true;
 594              		.loc 1 101 13 is_stmt 1 view .LVU190
 595              		.loc 1 101 26 is_stmt 0 view .LVU191
 596 0040 0123     		movs	r3, #1
 597 0042 8376     		strb	r3, [r0, #26]
 598 0044 7047     		bx	lr
 599              	.L33:
 102:Core/Src/cnc_core.c ****         }
 103:Core/Src/cnc_core.c ****         else
 104:Core/Src/cnc_core.c ****             info->pulsesCnt.x--;
 600              		.loc 1 104 13 is_stmt 1 view .LVU192
 601              		.loc 1 104 30 is_stmt 0 view .LVU193
 602 0046 013B     		subs	r3, r3, #1
 603 0048 8381     		strh	r3, [r0, #12]	@ movhi
 105:Core/Src/cnc_core.c ****     }
 106:Core/Src/cnc_core.c **** }
 604              		.loc 1 106 1 view .LVU194
 605 004a 7047     		bx	lr
 606              		.cfi_endproc
 607              	.LFE291:
 609              		.section	.text.CNC_TIM_Callback_Y,"ax",%progbits
 610              		.align	1
 611              		.global	CNC_TIM_Callback_Y
 612              		.syntax unified
 613              		.thumb
 614              		.thumb_func
 616              	CNC_TIM_Callback_Y:
 617              	.LVL33:
 618              	.LFB292:
 107:Core/Src/cnc_core.c **** 
 108:Core/Src/cnc_core.c **** extern inline void CNC_TIM_Callback_Y(HMI_info_t* info, TIM_HandleTypeDef *htimY){
 619              		.loc 1 108 82 is_stmt 1 view -0
 620              		.cfi_startproc
 621              		@ args = 0, pretend = 0, frame = 0
 622              		@ frame_needed = 0, uses_anonymous_args = 0
 623              		@ link register save eliminated.
 109:Core/Src/cnc_core.c ****     htimY->Instance->ARR = info->pulseLenght.y;
 624              		.loc 1 109 5 view .LVU196
 625              		.loc 1 109 10 is_stmt 0 view .LVU197
 626 0000 0B68     		ldr	r3, [r1]
 627              		.loc 1 109 45 view .LVU198
 628 0002 B0F90A20 		ldrsh	r2, [r0, #10]
 629              		.loc 1 109 26 view .LVU199
 630 0006 DA62     		str	r2, [r3, #44]
 110:Core/Src/cnc_core.c ****     htimY->Instance->CCR1 = ((info->pulseLenght.y)>>1);
 631              		.loc 1 110 5 is_stmt 1 view .LVU200
 632              		.loc 1 110 48 is_stmt 0 view .LVU201
 633 0008 B0F90A30 		ldrsh	r3, [r0, #10]
 634              		.loc 1 110 10 view .LVU202
 635 000c 0A68     		ldr	r2, [r1]
 636              		.loc 1 110 51 view .LVU203
 637 000e 5B10     		asrs	r3, r3, #1
 638              		.loc 1 110 27 view .LVU204
 639 0010 5363     		str	r3, [r2, #52]
 111:Core/Src/cnc_core.c **** 
 112:Core/Src/cnc_core.c ****     if(info->dirY){
ARM GAS  /tmp/ccXasQuo.s 			page 15


 640              		.loc 1 112 5 is_stmt 1 view .LVU205
 641              		.loc 1 112 12 is_stmt 0 view .LVU206
 642 0012 437C     		ldrb	r3, [r0, #17]	@ zero_extendqisi2
 643              		.loc 1 112 7 view .LVU207
 644 0014 6BB1     		cbz	r3, .L36
 113:Core/Src/cnc_core.c ****         if(info->pulsesCnt.y == stepY_01mm-1){
 645              		.loc 1 113 9 is_stmt 1 view .LVU208
 646              		.loc 1 113 27 is_stmt 0 view .LVU209
 647 0016 C389     		ldrh	r3, [r0, #14]
 648              		.loc 1 113 11 view .LVU210
 649 0018 032B     		cmp	r3, #3
 650 001a 02D0     		beq	.L40
 114:Core/Src/cnc_core.c ****             info->pulsesCnt.y = 0;
 115:Core/Src/cnc_core.c ****             info->pos.y++;
 116:Core/Src/cnc_core.c ****             info->update = true;
 117:Core/Src/cnc_core.c ****         }
 118:Core/Src/cnc_core.c ****         else
 119:Core/Src/cnc_core.c ****             info->pulsesCnt.y++;
 651              		.loc 1 119 13 is_stmt 1 view .LVU211
 652              		.loc 1 119 30 is_stmt 0 view .LVU212
 653 001c 0133     		adds	r3, r3, #1
 654 001e C381     		strh	r3, [r0, #14]	@ movhi
 655 0020 7047     		bx	lr
 656              	.L40:
 114:Core/Src/cnc_core.c ****             info->pulsesCnt.y = 0;
 657              		.loc 1 114 13 is_stmt 1 view .LVU213
 114:Core/Src/cnc_core.c ****             info->pulsesCnt.y = 0;
 658              		.loc 1 114 31 is_stmt 0 view .LVU214
 659 0022 0023     		movs	r3, #0
 660 0024 C381     		strh	r3, [r0, #14]	@ movhi
 115:Core/Src/cnc_core.c ****             info->update = true;
 661              		.loc 1 115 13 is_stmt 1 view .LVU215
 115:Core/Src/cnc_core.c ****             info->update = true;
 662              		.loc 1 115 22 is_stmt 0 view .LVU216
 663 0026 C388     		ldrh	r3, [r0, #6]
 115:Core/Src/cnc_core.c ****             info->update = true;
 664              		.loc 1 115 24 view .LVU217
 665 0028 0133     		adds	r3, r3, #1
 666 002a C380     		strh	r3, [r0, #6]	@ movhi
 116:Core/Src/cnc_core.c ****         }
 667              		.loc 1 116 13 is_stmt 1 view .LVU218
 116:Core/Src/cnc_core.c ****         }
 668              		.loc 1 116 26 is_stmt 0 view .LVU219
 669 002c 0123     		movs	r3, #1
 670 002e 8376     		strb	r3, [r0, #26]
 671 0030 7047     		bx	lr
 672              	.L36:
 120:Core/Src/cnc_core.c ****     }
 121:Core/Src/cnc_core.c ****     else{
 122:Core/Src/cnc_core.c ****         if(info->pulsesCnt.y == 0){
 673              		.loc 1 122 9 is_stmt 1 view .LVU220
 674              		.loc 1 122 27 is_stmt 0 view .LVU221
 675 0032 C389     		ldrh	r3, [r0, #14]
 676              		.loc 1 122 11 view .LVU222
 677 0034 3BB9     		cbnz	r3, .L39
 123:Core/Src/cnc_core.c ****             info->pulsesCnt.y = 3;
 678              		.loc 1 123 13 is_stmt 1 view .LVU223
ARM GAS  /tmp/ccXasQuo.s 			page 16


 679              		.loc 1 123 31 is_stmt 0 view .LVU224
 680 0036 0323     		movs	r3, #3
 681 0038 C381     		strh	r3, [r0, #14]	@ movhi
 124:Core/Src/cnc_core.c ****             info->pos.y--;
 682              		.loc 1 124 13 is_stmt 1 view .LVU225
 683              		.loc 1 124 22 is_stmt 0 view .LVU226
 684 003a C388     		ldrh	r3, [r0, #6]
 685              		.loc 1 124 24 view .LVU227
 686 003c 013B     		subs	r3, r3, #1
 687 003e C380     		strh	r3, [r0, #6]	@ movhi
 125:Core/Src/cnc_core.c ****             info->update = true;
 688              		.loc 1 125 13 is_stmt 1 view .LVU228
 689              		.loc 1 125 26 is_stmt 0 view .LVU229
 690 0040 0123     		movs	r3, #1
 691 0042 8376     		strb	r3, [r0, #26]
 692 0044 7047     		bx	lr
 693              	.L39:
 126:Core/Src/cnc_core.c ****         }
 127:Core/Src/cnc_core.c ****         else
 128:Core/Src/cnc_core.c ****             info->pulsesCnt.y--;
 694              		.loc 1 128 13 is_stmt 1 view .LVU230
 695              		.loc 1 128 30 is_stmt 0 view .LVU231
 696 0046 013B     		subs	r3, r3, #1
 697 0048 C381     		strh	r3, [r0, #14]	@ movhi
 129:Core/Src/cnc_core.c ****     }
 130:Core/Src/cnc_core.c **** }
 698              		.loc 1 130 1 view .LVU232
 699 004a 7047     		bx	lr
 700              		.cfi_endproc
 701              	.LFE292:
 703              		.section	.text.CNC_HL_Control,"ax",%progbits
 704              		.align	1
 705              		.global	CNC_HL_Control
 706              		.syntax unified
 707              		.thumb
 708              		.thumb_func
 710              	CNC_HL_Control:
 711              	.LVL34:
 712              	.LFB293:
 131:Core/Src/cnc_core.c **** 
 132:Core/Src/cnc_core.c **** void CNC_HL_Control(HMI_info_t* info, TIM_HandleTypeDef *htimX, TIM_HandleTypeDef *htimY, UART_Hand
 713              		.loc 1 132 137 is_stmt 1 view -0
 714              		.cfi_startproc
 715              		@ args = 4, pretend = 0, frame = 0
 716              		@ frame_needed = 0, uses_anonymous_args = 0
 717              		.loc 1 132 137 is_stmt 0 view .LVU234
 718 0000 38B5     		push	{r3, r4, r5, lr}
 719              		.cfi_def_cfa_offset 16
 720              		.cfi_offset 3, -16
 721              		.cfi_offset 4, -12
 722              		.cfi_offset 5, -8
 723              		.cfi_offset 14, -4
 724 0002 0446     		mov	r4, r0
 133:Core/Src/cnc_core.c ****     switch (info->mode) {
 725              		.loc 1 133 5 is_stmt 1 view .LVU235
 726              		.loc 1 133 17 is_stmt 0 view .LVU236
 727 0004 90F800C0 		ldrb	ip, [r0]	@ zero_extendqisi2
ARM GAS  /tmp/ccXasQuo.s 			page 17


 728              		.loc 1 133 5 view .LVU237
 729 0008 BCF1010F 		cmp	ip, #1
 730 000c 04D0     		beq	.L42
 731 000e 1D46     		mov	r5, r3
 732 0010 BCF1030F 		cmp	ip, #3
 733 0014 23D0     		beq	.L43
 734              	.LVL35:
 735              	.L41:
 134:Core/Src/cnc_core.c ****         case  HMI_Mode_Zero:
 135:Core/Src/cnc_core.c ****         break;
 136:Core/Src/cnc_core.c **** 
 137:Core/Src/cnc_core.c ****         case  HMI_Mode_Man:
 138:Core/Src/cnc_core.c ****             info->move = HMI_Move_Jog;
 139:Core/Src/cnc_core.c ****             int16_t jogX = ((int16_t) (adc_data[6]>>1)) - (1844/2); //subtract center value X
 140:Core/Src/cnc_core.c ****             int16_t jogY = ((int16_t) (adc_data[7]>>1)) - (1814/2); //subtract center value Y
 141:Core/Src/cnc_core.c ****             info->commanded.speed.x = (abs(jogX) > 70) ? jogX : 0;  // dead zone near center X
 142:Core/Src/cnc_core.c ****             info->commanded.speed.y = (abs(jogY) > 70) ? jogY : 0;  // dead zone near center Y
 143:Core/Src/cnc_core.c ****             CNC_Jog(info, htimX, htimY);
 144:Core/Src/cnc_core.c ****         break;
 145:Core/Src/cnc_core.c **** 
 146:Core/Src/cnc_core.c ****         case  HMI_Mode_Face:
 147:Core/Src/cnc_core.c ****             
 148:Core/Src/cnc_core.c ****         break; 
 149:Core/Src/cnc_core.c **** 
 150:Core/Src/cnc_core.c ****         case  HMI_Mode_Ser:
 151:Core/Src/cnc_core.c ****             if(info->state == HMI_State_Run){
 152:Core/Src/cnc_core.c ****                 switch (info->move) {
 153:Core/Src/cnc_core.c ****                 case HMI_Move_None:
 154:Core/Src/cnc_core.c ****                     if(ReadGcode(huart, info)) 
 155:Core/Src/cnc_core.c ****                         info->move = HMI_Move_Absolute; 
 156:Core/Src/cnc_core.c ****                     else
 157:Core/Src/cnc_core.c ****                         WriteACK(huart, false);
 158:Core/Src/cnc_core.c ****                 break;
 159:Core/Src/cnc_core.c **** 
 160:Core/Src/cnc_core.c ****                 case HMI_Move_Done:
 161:Core/Src/cnc_core.c ****                     info->move = HMI_Move_None;
 162:Core/Src/cnc_core.c ****                     info->update = true;
 163:Core/Src/cnc_core.c ****                     WriteACK(huart, true);
 164:Core/Src/cnc_core.c ****                 break;
 165:Core/Src/cnc_core.c **** 
 166:Core/Src/cnc_core.c ****                 case HMI_Move_Absolute:
 167:Core/Src/cnc_core.c ****                     CNC_Absolute(info, htimX, htimY);
 168:Core/Src/cnc_core.c ****                 break;
 169:Core/Src/cnc_core.c ****                 }
 170:Core/Src/cnc_core.c ****             }               
 171:Core/Src/cnc_core.c ****         break;
 172:Core/Src/cnc_core.c ****     }
 173:Core/Src/cnc_core.c **** }
 736              		.loc 1 173 1 view .LVU238
 737 0016 38BD     		pop	{r3, r4, r5, pc}
 738              	.LVL36:
 739              	.L42:
 740              	.LBB8:
 138:Core/Src/cnc_core.c ****             int16_t jogX = ((int16_t) (adc_data[6]>>1)) - (1844/2); //subtract center value X
 741              		.loc 1 138 13 is_stmt 1 view .LVU239
 138:Core/Src/cnc_core.c ****             int16_t jogX = ((int16_t) (adc_data[6]>>1)) - (1844/2); //subtract center value X
 742              		.loc 1 138 24 is_stmt 0 view .LVU240
ARM GAS  /tmp/ccXasQuo.s 			page 18


 743 0018 0123     		movs	r3, #1
 744              	.LVL37:
 138:Core/Src/cnc_core.c ****             int16_t jogX = ((int16_t) (adc_data[6]>>1)) - (1844/2); //subtract center value X
 745              		.loc 1 138 24 view .LVU241
 746 001a 8370     		strb	r3, [r0, #2]
 139:Core/Src/cnc_core.c ****             int16_t jogY = ((int16_t) (adc_data[7]>>1)) - (1814/2); //subtract center value Y
 747              		.loc 1 139 13 is_stmt 1 view .LVU242
 139:Core/Src/cnc_core.c ****             int16_t jogY = ((int16_t) (adc_data[7]>>1)) - (1814/2); //subtract center value Y
 748              		.loc 1 139 48 is_stmt 0 view .LVU243
 749 001c 049B     		ldr	r3, [sp, #16]
 750 001e 9889     		ldrh	r0, [r3, #12]
 751              	.LVL38:
 139:Core/Src/cnc_core.c ****             int16_t jogY = ((int16_t) (adc_data[7]>>1)) - (1814/2); //subtract center value Y
 752              		.loc 1 139 29 view .LVU244
 753 0020 4008     		lsrs	r0, r0, #1
 139:Core/Src/cnc_core.c ****             int16_t jogY = ((int16_t) (adc_data[7]>>1)) - (1814/2); //subtract center value Y
 754              		.loc 1 139 57 view .LVU245
 755 0022 A0F29A30 		subw	r0, r0, #922
 139:Core/Src/cnc_core.c ****             int16_t jogY = ((int16_t) (adc_data[7]>>1)) - (1814/2); //subtract center value Y
 756              		.loc 1 139 21 view .LVU246
 757 0026 00B2     		sxth	r0, r0
 758              	.LVL39:
 140:Core/Src/cnc_core.c ****             info->commanded.speed.x = (abs(jogX) > 70) ? jogX : 0;  // dead zone near center X
 759              		.loc 1 140 13 is_stmt 1 view .LVU247
 140:Core/Src/cnc_core.c ****             info->commanded.speed.x = (abs(jogX) > 70) ? jogX : 0;  // dead zone near center X
 760              		.loc 1 140 48 is_stmt 0 view .LVU248
 761 0028 DB89     		ldrh	r3, [r3, #14]
 140:Core/Src/cnc_core.c ****             info->commanded.speed.x = (abs(jogX) > 70) ? jogX : 0;  // dead zone near center X
 762              		.loc 1 140 29 view .LVU249
 763 002a 5B08     		lsrs	r3, r3, #1
 140:Core/Src/cnc_core.c ****             info->commanded.speed.x = (abs(jogX) > 70) ? jogX : 0;  // dead zone near center X
 764              		.loc 1 140 57 view .LVU250
 765 002c A3F28B33 		subw	r3, r3, #907
 140:Core/Src/cnc_core.c ****             info->commanded.speed.x = (abs(jogX) > 70) ? jogX : 0;  // dead zone near center X
 766              		.loc 1 140 21 view .LVU251
 767 0030 1BB2     		sxth	r3, r3
 768              	.LVL40:
 141:Core/Src/cnc_core.c ****             info->commanded.speed.y = (abs(jogY) > 70) ? jogY : 0;  // dead zone near center Y
 769              		.loc 1 141 13 is_stmt 1 view .LVU252
 141:Core/Src/cnc_core.c ****             info->commanded.speed.y = (abs(jogY) > 70) ? jogY : 0;  // dead zone near center Y
 770              		.loc 1 141 40 is_stmt 0 view .LVU253
 771 0032 80EAE075 		eor	r5, r0, r0, asr #31
 772 0036 A5EBE075 		sub	r5, r5, r0, asr #31
 773 003a ADB2     		uxth	r5, r5
 141:Core/Src/cnc_core.c ****             info->commanded.speed.y = (abs(jogY) > 70) ? jogY : 0;  // dead zone near center Y
 774              		.loc 1 141 37 view .LVU254
 775 003c 462D     		cmp	r5, #70
 776 003e 00D8     		bhi	.L45
 777 0040 0020     		movs	r0, #0
 778              	.LVL41:
 779              	.L45:
 141:Core/Src/cnc_core.c ****             info->commanded.speed.y = (abs(jogY) > 70) ? jogY : 0;  // dead zone near center Y
 780              		.loc 1 141 37 discriminator 4 view .LVU255
 781 0042 6082     		strh	r0, [r4, #18]	@ movhi
 782              	.LVL42:
 142:Core/Src/cnc_core.c ****             CNC_Jog(info, htimX, htimY);
 783              		.loc 1 142 13 is_stmt 1 discriminator 4 view .LVU256
ARM GAS  /tmp/ccXasQuo.s 			page 19


 142:Core/Src/cnc_core.c ****             CNC_Jog(info, htimX, htimY);
 784              		.loc 1 142 40 is_stmt 0 discriminator 4 view .LVU257
 785 0044 83EAE370 		eor	r0, r3, r3, asr #31
 786 0048 A0EBE370 		sub	r0, r0, r3, asr #31
 787 004c 80B2     		uxth	r0, r0
 142:Core/Src/cnc_core.c ****             CNC_Jog(info, htimX, htimY);
 788              		.loc 1 142 37 discriminator 4 view .LVU258
 789 004e 4628     		cmp	r0, #70
 790 0050 00D8     		bhi	.L46
 142:Core/Src/cnc_core.c ****             CNC_Jog(info, htimX, htimY);
 791              		.loc 1 142 37 view .LVU259
 792 0052 0023     		movs	r3, #0
 793              	.LVL43:
 794              	.L46:
 142:Core/Src/cnc_core.c ****             CNC_Jog(info, htimX, htimY);
 795              		.loc 1 142 37 discriminator 4 view .LVU260
 796 0054 A382     		strh	r3, [r4, #20]	@ movhi
 143:Core/Src/cnc_core.c ****         break;
 797              		.loc 1 143 13 is_stmt 1 discriminator 4 view .LVU261
 798 0056 2046     		mov	r0, r4
 799 0058 FFF7FEFF 		bl	CNC_Jog
 800              	.LVL44:
 144:Core/Src/cnc_core.c **** 
 801              		.loc 1 144 9 discriminator 4 view .LVU262
 802 005c DBE7     		b	.L41
 803              	.LVL45:
 804              	.L43:
 151:Core/Src/cnc_core.c ****                 switch (info->move) {
 805              		.loc 1 151 13 view .LVU263
 151:Core/Src/cnc_core.c ****                 switch (info->move) {
 806              		.loc 1 151 20 is_stmt 0 view .LVU264
 807 005e 4378     		ldrb	r3, [r0, #1]	@ zero_extendqisi2
 808              	.LVL46:
 151:Core/Src/cnc_core.c ****                 switch (info->move) {
 809              		.loc 1 151 15 view .LVU265
 810 0060 022B     		cmp	r3, #2
 811 0062 D8D1     		bne	.L41
 152:Core/Src/cnc_core.c ****                 case HMI_Move_None:
 812              		.loc 1 152 17 is_stmt 1 view .LVU266
 152:Core/Src/cnc_core.c ****                 case HMI_Move_None:
 813              		.loc 1 152 29 is_stmt 0 view .LVU267
 814 0064 8378     		ldrb	r3, [r0, #2]	@ zero_extendqisi2
 815 0066 022B     		cmp	r3, #2
 816 0068 06D0     		beq	.L47
 817 006a 032B     		cmp	r3, #3
 818 006c 11D0     		beq	.L48
 819 006e 002B     		cmp	r3, #0
 820 0070 D1D1     		bne	.L41
 167:Core/Src/cnc_core.c ****                 break;
 821              		.loc 1 167 21 is_stmt 1 view .LVU268
 822 0072 FFF7FEFF 		bl	CNC_Absolute
 823              	.LVL47:
 168:Core/Src/cnc_core.c ****                 }
 824              		.loc 1 168 17 view .LVU269
 825              	.LBE8:
 826              		.loc 1 173 1 is_stmt 0 view .LVU270
 827 0076 CEE7     		b	.L41
ARM GAS  /tmp/ccXasQuo.s 			page 20


 828              	.LVL48:
 829              	.L47:
 830              	.LBB9:
 154:Core/Src/cnc_core.c ****                         info->move = HMI_Move_Absolute; 
 831              		.loc 1 154 21 is_stmt 1 view .LVU271
 154:Core/Src/cnc_core.c ****                         info->move = HMI_Move_Absolute; 
 832              		.loc 1 154 24 is_stmt 0 view .LVU272
 833 0078 0146     		mov	r1, r0
 834              	.LVL49:
 154:Core/Src/cnc_core.c ****                         info->move = HMI_Move_Absolute; 
 835              		.loc 1 154 24 view .LVU273
 836 007a 2846     		mov	r0, r5
 837              	.LVL50:
 154:Core/Src/cnc_core.c ****                         info->move = HMI_Move_Absolute; 
 838              		.loc 1 154 24 view .LVU274
 839 007c FFF7FEFF 		bl	ReadGcode
 840              	.LVL51:
 154:Core/Src/cnc_core.c ****                         info->move = HMI_Move_Absolute; 
 841              		.loc 1 154 23 view .LVU275
 842 0080 10B1     		cbz	r0, .L50
 155:Core/Src/cnc_core.c ****                     else
 843              		.loc 1 155 25 is_stmt 1 view .LVU276
 155:Core/Src/cnc_core.c ****                     else
 844              		.loc 1 155 36 is_stmt 0 view .LVU277
 845 0082 0023     		movs	r3, #0
 846 0084 A370     		strb	r3, [r4, #2]
 847 0086 C6E7     		b	.L41
 848              	.L50:
 157:Core/Src/cnc_core.c ****                 break;
 849              		.loc 1 157 25 is_stmt 1 view .LVU278
 850 0088 0021     		movs	r1, #0
 851 008a 2846     		mov	r0, r5
 852 008c FFF7FEFF 		bl	WriteACK
 853              	.LVL52:
 854 0090 C1E7     		b	.L41
 855              	.LVL53:
 856              	.L48:
 161:Core/Src/cnc_core.c ****                     info->update = true;
 857              		.loc 1 161 21 view .LVU279
 161:Core/Src/cnc_core.c ****                     info->update = true;
 858              		.loc 1 161 32 is_stmt 0 view .LVU280
 859 0092 0223     		movs	r3, #2
 860 0094 8370     		strb	r3, [r0, #2]
 162:Core/Src/cnc_core.c ****                     WriteACK(huart, true);
 861              		.loc 1 162 21 is_stmt 1 view .LVU281
 162:Core/Src/cnc_core.c ****                     WriteACK(huart, true);
 862              		.loc 1 162 34 is_stmt 0 view .LVU282
 863 0096 0121     		movs	r1, #1
 864              	.LVL54:
 162:Core/Src/cnc_core.c ****                     WriteACK(huart, true);
 865              		.loc 1 162 34 view .LVU283
 866 0098 8176     		strb	r1, [r0, #26]
 163:Core/Src/cnc_core.c ****                 break;
 867              		.loc 1 163 21 is_stmt 1 view .LVU284
 868 009a 2846     		mov	r0, r5
 869              	.LVL55:
 163:Core/Src/cnc_core.c ****                 break;
ARM GAS  /tmp/ccXasQuo.s 			page 21


 870              		.loc 1 163 21 is_stmt 0 view .LVU285
 871 009c FFF7FEFF 		bl	WriteACK
 872              	.LVL56:
 164:Core/Src/cnc_core.c **** 
 873              		.loc 1 164 17 is_stmt 1 view .LVU286
 874 00a0 B9E7     		b	.L41
 875              	.LBE9:
 876              		.cfi_endproc
 877              	.LFE293:
 879              		.section	.text.CNC_Stop,"ax",%progbits
 880              		.align	1
 881              		.global	CNC_Stop
 882              		.syntax unified
 883              		.thumb
 884              		.thumb_func
 886              	CNC_Stop:
 887              	.LVL57:
 888              	.LFB294:
 174:Core/Src/cnc_core.c **** 
 175:Core/Src/cnc_core.c **** extern inline void CNC_Stop(HMI_info_t* info, TIM_HandleTypeDef *htimX, TIM_HandleTypeDef *htimY){
 889              		.loc 1 175 98 view -0
 890              		.cfi_startproc
 891              		@ args = 0, pretend = 0, frame = 0
 892              		@ frame_needed = 0, uses_anonymous_args = 0
 893              		@ link register save eliminated.
 176:Core/Src/cnc_core.c ****     htimX->Instance->CR1 |= TIM_CR1_OPM;
 894              		.loc 1 176 5 view .LVU288
 895              		.loc 1 176 10 is_stmt 0 view .LVU289
 896 0000 0968     		ldr	r1, [r1]
 897              	.LVL58:
 898              		.loc 1 176 26 view .LVU290
 899 0002 0B68     		ldr	r3, [r1]
 900 0004 43F00803 		orr	r3, r3, #8
 901 0008 0B60     		str	r3, [r1]
 177:Core/Src/cnc_core.c ****     htimY->Instance->CR1 |= TIM_CR1_OPM;
 902              		.loc 1 177 5 is_stmt 1 view .LVU291
 903              		.loc 1 177 10 is_stmt 0 view .LVU292
 904 000a 1268     		ldr	r2, [r2]
 905              	.LVL59:
 906              		.loc 1 177 26 view .LVU293
 907 000c 1368     		ldr	r3, [r2]
 908 000e 43F00803 		orr	r3, r3, #8
 909 0012 1360     		str	r3, [r2]
 178:Core/Src/cnc_core.c **** 
 179:Core/Src/cnc_core.c ****     info->state = HMI_State_Stop;
 910              		.loc 1 179 5 is_stmt 1 view .LVU294
 911              		.loc 1 179 17 is_stmt 0 view .LVU295
 912 0014 0023     		movs	r3, #0
 913 0016 4370     		strb	r3, [r0, #1]
 180:Core/Src/cnc_core.c ****     info->update = true;
 914              		.loc 1 180 5 is_stmt 1 view .LVU296
 915              		.loc 1 180 18 is_stmt 0 view .LVU297
 916 0018 0123     		movs	r3, #1
 917 001a 8376     		strb	r3, [r0, #26]
 181:Core/Src/cnc_core.c ****     info->cnt2 = 30;
 918              		.loc 1 181 5 is_stmt 1 view .LVU298
 919              		.loc 1 181 16 is_stmt 0 view .LVU299
ARM GAS  /tmp/ccXasQuo.s 			page 22


 920 001c 1E23     		movs	r3, #30
 921 001e 4376     		strb	r3, [r0, #25]
 182:Core/Src/cnc_core.c **** }
 922              		.loc 1 182 1 view .LVU300
 923 0020 7047     		bx	lr
 924              		.cfi_endproc
 925              	.LFE294:
 927              		.section	.text.CNC_Limit_X,"ax",%progbits
 928              		.align	1
 929              		.global	CNC_Limit_X
 930              		.syntax unified
 931              		.thumb
 932              		.thumb_func
 934              	CNC_Limit_X:
 935              	.LVL60:
 936              	.LFB295:
 183:Core/Src/cnc_core.c **** 
 184:Core/Src/cnc_core.c **** extern inline void CNC_Limit_X(HMI_info_t* info, TIM_HandleTypeDef *htimX, TIM_HandleTypeDef *htimY
 937              		.loc 1 184 101 is_stmt 1 view -0
 938              		.cfi_startproc
 939              		@ args = 0, pretend = 0, frame = 0
 940              		@ frame_needed = 0, uses_anonymous_args = 0
 941              		@ link register save eliminated.
 185:Core/Src/cnc_core.c ****     htimX->Instance->CR1 |= TIM_CR1_OPM;
 942              		.loc 1 185 5 view .LVU302
 943              		.loc 1 185 10 is_stmt 0 view .LVU303
 944 0000 0968     		ldr	r1, [r1]
 945              	.LVL61:
 946              		.loc 1 185 26 view .LVU304
 947 0002 0B68     		ldr	r3, [r1]
 948 0004 43F00803 		orr	r3, r3, #8
 949 0008 0B60     		str	r3, [r1]
 186:Core/Src/cnc_core.c ****     htimY->Instance->CR1 |= TIM_CR1_OPM;
 950              		.loc 1 186 5 is_stmt 1 view .LVU305
 951              		.loc 1 186 10 is_stmt 0 view .LVU306
 952 000a 1268     		ldr	r2, [r2]
 953              	.LVL62:
 954              		.loc 1 186 26 view .LVU307
 955 000c 1368     		ldr	r3, [r2]
 956 000e 43F00803 		orr	r3, r3, #8
 957 0012 1360     		str	r3, [r2]
 187:Core/Src/cnc_core.c **** 
 188:Core/Src/cnc_core.c ****     info->state = HMI_State_Stop;
 958              		.loc 1 188 5 is_stmt 1 view .LVU308
 959              		.loc 1 188 17 is_stmt 0 view .LVU309
 960 0014 0023     		movs	r3, #0
 961 0016 4370     		strb	r3, [r0, #1]
 189:Core/Src/cnc_core.c ****     info->pos.x = 0;
 962              		.loc 1 189 5 is_stmt 1 view .LVU310
 963              		.loc 1 189 17 is_stmt 0 view .LVU311
 964 0018 8380     		strh	r3, [r0, #4]	@ movhi
 190:Core/Src/cnc_core.c **** }
 965              		.loc 1 190 1 view .LVU312
 966 001a 7047     		bx	lr
 967              		.cfi_endproc
 968              	.LFE295:
 970              		.section	.text.CNC_Limit_Y,"ax",%progbits
ARM GAS  /tmp/ccXasQuo.s 			page 23


 971              		.align	1
 972              		.global	CNC_Limit_Y
 973              		.syntax unified
 974              		.thumb
 975              		.thumb_func
 977              	CNC_Limit_Y:
 978              	.LVL63:
 979              	.LFB296:
 191:Core/Src/cnc_core.c **** 
 192:Core/Src/cnc_core.c **** extern inline void CNC_Limit_Y(HMI_info_t* info, TIM_HandleTypeDef *htimX, TIM_HandleTypeDef *htimY
 980              		.loc 1 192 101 is_stmt 1 view -0
 981              		.cfi_startproc
 982              		@ args = 0, pretend = 0, frame = 0
 983              		@ frame_needed = 0, uses_anonymous_args = 0
 984              		@ link register save eliminated.
 193:Core/Src/cnc_core.c ****     htimX->Instance->CR1 |= TIM_CR1_OPM;
 985              		.loc 1 193 5 view .LVU314
 986              		.loc 1 193 10 is_stmt 0 view .LVU315
 987 0000 0968     		ldr	r1, [r1]
 988              	.LVL64:
 989              		.loc 1 193 26 view .LVU316
 990 0002 0B68     		ldr	r3, [r1]
 991 0004 43F00803 		orr	r3, r3, #8
 992 0008 0B60     		str	r3, [r1]
 194:Core/Src/cnc_core.c ****     htimY->Instance->CR1 |= TIM_CR1_OPM;
 993              		.loc 1 194 5 is_stmt 1 view .LVU317
 994              		.loc 1 194 10 is_stmt 0 view .LVU318
 995 000a 1268     		ldr	r2, [r2]
 996              	.LVL65:
 997              		.loc 1 194 26 view .LVU319
 998 000c 1368     		ldr	r3, [r2]
 999 000e 43F00803 		orr	r3, r3, #8
 1000 0012 1360     		str	r3, [r2]
 195:Core/Src/cnc_core.c **** 
 196:Core/Src/cnc_core.c ****     info->state = HMI_State_Stop;
 1001              		.loc 1 196 5 is_stmt 1 view .LVU320
 1002              		.loc 1 196 17 is_stmt 0 view .LVU321
 1003 0014 0023     		movs	r3, #0
 1004 0016 4370     		strb	r3, [r0, #1]
 197:Core/Src/cnc_core.c ****     info->pos.y = 0;
 1005              		.loc 1 197 5 is_stmt 1 view .LVU322
 1006              		.loc 1 197 17 is_stmt 0 view .LVU323
 1007 0018 C380     		strh	r3, [r0, #6]	@ movhi
 198:Core/Src/cnc_core.c **** }
 1008              		.loc 1 198 1 view .LVU324
 1009 001a 7047     		bx	lr
 1010              		.cfi_endproc
 1011              	.LFE296:
 1013              		.text
 1014              	.Letext0:
 1015              		.file 2 "/home/retfie/.config/VSCodium/User/globalStorage/bmd.stm32-for-vscode/@xpack-dev-tools/ar
 1016              		.file 3 "/home/retfie/.config/VSCodium/User/globalStorage/bmd.stm32-for-vscode/@xpack-dev-tools/ar
 1017              		.file 4 "Drivers/CMSIS/Device/ST/STM32L4xx/Include/stm32l431xx.h"
 1018              		.file 5 "Drivers/STM32L4xx_HAL_Driver/Inc/stm32l4xx_hal_def.h"
 1019              		.file 6 "Drivers/STM32L4xx_HAL_Driver/Inc/stm32l4xx_hal_gpio.h"
 1020              		.file 7 "Drivers/STM32L4xx_HAL_Driver/Inc/stm32l4xx_hal_dma.h"
 1021              		.file 8 "Drivers/STM32L4xx_HAL_Driver/Inc/stm32l4xx_hal_tim.h"
ARM GAS  /tmp/ccXasQuo.s 			page 24


 1022              		.file 9 "Drivers/STM32L4xx_HAL_Driver/Inc/stm32l4xx_hal_uart.h"
 1023              		.file 10 "Core/Inc/cnc_info.h"
 1024              		.file 11 "/home/retfie/.config/VSCodium/User/globalStorage/bmd.stm32-for-vscode/@xpack-dev-tools/a
 1025              		.file 12 "Core/Inc/data_parser.h"
ARM GAS  /tmp/ccXasQuo.s 			page 25


DEFINED SYMBOLS
                            *ABS*:0000000000000000 cnc_core.c
     /tmp/ccXasQuo.s:20     .text.ihyp:0000000000000000 $t
     /tmp/ccXasQuo.s:26     .text.ihyp:0000000000000000 ihyp
     /tmp/ccXasQuo.s:70     .text.CNC_Absolute:0000000000000000 $t
     /tmp/ccXasQuo.s:76     .text.CNC_Absolute:0000000000000000 CNC_Absolute
     /tmp/ccXasQuo.s:343    .text.CNC_Absolute:0000000000000128 $d
     /tmp/ccXasQuo.s:348    .text.CNC_Jog:0000000000000000 $t
     /tmp/ccXasQuo.s:354    .text.CNC_Jog:0000000000000000 CNC_Jog
     /tmp/ccXasQuo.s:511    .text.CNC_Jog:00000000000000c0 $d
     /tmp/ccXasQuo.s:516    .text.CNC_TIM_Callback_X:0000000000000000 $t
     /tmp/ccXasQuo.s:522    .text.CNC_TIM_Callback_X:0000000000000000 CNC_TIM_Callback_X
     /tmp/ccXasQuo.s:610    .text.CNC_TIM_Callback_Y:0000000000000000 $t
     /tmp/ccXasQuo.s:616    .text.CNC_TIM_Callback_Y:0000000000000000 CNC_TIM_Callback_Y
     /tmp/ccXasQuo.s:704    .text.CNC_HL_Control:0000000000000000 $t
     /tmp/ccXasQuo.s:710    .text.CNC_HL_Control:0000000000000000 CNC_HL_Control
     /tmp/ccXasQuo.s:880    .text.CNC_Stop:0000000000000000 $t
     /tmp/ccXasQuo.s:886    .text.CNC_Stop:0000000000000000 CNC_Stop
     /tmp/ccXasQuo.s:928    .text.CNC_Limit_X:0000000000000000 $t
     /tmp/ccXasQuo.s:934    .text.CNC_Limit_X:0000000000000000 CNC_Limit_X
     /tmp/ccXasQuo.s:971    .text.CNC_Limit_Y:0000000000000000 $t
     /tmp/ccXasQuo.s:977    .text.CNC_Limit_Y:0000000000000000 CNC_Limit_Y

UNDEFINED SYMBOLS
HAL_GPIO_WritePin
div
HAL_GPIO_ReadPin
ReadGcode
WriteACK
